
Desensamblado de la secci贸n .init:

0000000000400c48 <_init>:
  400c48:	48 83 ec 08          	sub    $0x8,%rsp
  400c4c:	48 8b 05 a5 43 20 00 	mov    0x2043a5(%rip),%rax        # 604ff8 <__gmon_start__>
  400c53:	48 85 c0             	test   %rax,%rax
  400c56:	74 05                	je     400c5d <_init+0x15>
  400c58:	e8 43 02 00 00       	callq  400ea0 <__gmon_start__@plt>
  400c5d:	48 83 c4 08          	add    $0x8,%rsp
  400c61:	c3                   	retq   

Desensamblado de la secci贸n .plt:

0000000000400c70 <.plt>:
  400c70:	ff 35 92 43 20 00    	pushq  0x204392(%rip)        # 605008 <_GLOBAL_OFFSET_TABLE_+0x8>
  400c76:	ff 25 94 43 20 00    	jmpq   *0x204394(%rip)        # 605010 <_GLOBAL_OFFSET_TABLE_+0x10>
  400c7c:	0f 1f 40 00          	nopl   0x0(%rax)

0000000000400c80 <strcasecmp@plt>:
  400c80:	ff 25 92 43 20 00    	jmpq   *0x204392(%rip)        # 605018 <strcasecmp@GLIBC_2.2.5>
  400c86:	68 00 00 00 00       	pushq  $0x0
  400c8b:	e9 e0 ff ff ff       	jmpq   400c70 <.plt>

0000000000400c90 <__errno_location@plt>:
  400c90:	ff 25 8a 43 20 00    	jmpq   *0x20438a(%rip)        # 605020 <__errno_location@GLIBC_2.2.5>
  400c96:	68 01 00 00 00       	pushq  $0x1
  400c9b:	e9 d0 ff ff ff       	jmpq   400c70 <.plt>

0000000000400ca0 <srandom@plt>:
  400ca0:	ff 25 82 43 20 00    	jmpq   *0x204382(%rip)        # 605028 <srandom@GLIBC_2.2.5>
  400ca6:	68 02 00 00 00       	pushq  $0x2
  400cab:	e9 c0 ff ff ff       	jmpq   400c70 <.plt>

0000000000400cb0 <strncmp@plt>:
  400cb0:	ff 25 7a 43 20 00    	jmpq   *0x20437a(%rip)        # 605030 <strncmp@GLIBC_2.2.5>
  400cb6:	68 03 00 00 00       	pushq  $0x3
  400cbb:	e9 b0 ff ff ff       	jmpq   400c70 <.plt>

0000000000400cc0 <strcpy@plt>:
  400cc0:	ff 25 72 43 20 00    	jmpq   *0x204372(%rip)        # 605038 <strcpy@GLIBC_2.2.5>
  400cc6:	68 04 00 00 00       	pushq  $0x4
  400ccb:	e9 a0 ff ff ff       	jmpq   400c70 <.plt>

0000000000400cd0 <puts@plt>:
  400cd0:	ff 25 6a 43 20 00    	jmpq   *0x20436a(%rip)        # 605040 <puts@GLIBC_2.2.5>
  400cd6:	68 05 00 00 00       	pushq  $0x5
  400cdb:	e9 90 ff ff ff       	jmpq   400c70 <.plt>

0000000000400ce0 <write@plt>:
  400ce0:	ff 25 62 43 20 00    	jmpq   *0x204362(%rip)        # 605048 <write@GLIBC_2.2.5>
  400ce6:	68 06 00 00 00       	pushq  $0x6
  400ceb:	e9 80 ff ff ff       	jmpq   400c70 <.plt>

0000000000400cf0 <__stack_chk_fail@plt>:
  400cf0:	ff 25 5a 43 20 00    	jmpq   *0x20435a(%rip)        # 605050 <__stack_chk_fail@GLIBC_2.4>
  400cf6:	68 07 00 00 00       	pushq  $0x7
  400cfb:	e9 70 ff ff ff       	jmpq   400c70 <.plt>

0000000000400d00 <mmap@plt>:
  400d00:	ff 25 52 43 20 00    	jmpq   *0x204352(%rip)        # 605058 <mmap@GLIBC_2.2.5>
  400d06:	68 08 00 00 00       	pushq  $0x8
  400d0b:	e9 60 ff ff ff       	jmpq   400c70 <.plt>

0000000000400d10 <memset@plt>:
  400d10:	ff 25 4a 43 20 00    	jmpq   *0x20434a(%rip)        # 605060 <memset@GLIBC_2.2.5>
  400d16:	68 09 00 00 00       	pushq  $0x9
  400d1b:	e9 50 ff ff ff       	jmpq   400c70 <.plt>

0000000000400d20 <alarm@plt>:
  400d20:	ff 25 42 43 20 00    	jmpq   *0x204342(%rip)        # 605068 <alarm@GLIBC_2.2.5>
  400d26:	68 0a 00 00 00       	pushq  $0xa
  400d2b:	e9 40 ff ff ff       	jmpq   400c70 <.plt>

0000000000400d30 <close@plt>:
  400d30:	ff 25 3a 43 20 00    	jmpq   *0x20433a(%rip)        # 605070 <close@GLIBC_2.2.5>
  400d36:	68 0b 00 00 00       	pushq  $0xb
  400d3b:	e9 30 ff ff ff       	jmpq   400c70 <.plt>

0000000000400d40 <read@plt>:
  400d40:	ff 25 32 43 20 00    	jmpq   *0x204332(%rip)        # 605078 <read@GLIBC_2.2.5>
  400d46:	68 0c 00 00 00       	pushq  $0xc
  400d4b:	e9 20 ff ff ff       	jmpq   400c70 <.plt>

0000000000400d50 <__libc_start_main@plt>:
  400d50:	ff 25 2a 43 20 00    	jmpq   *0x20432a(%rip)        # 605080 <__libc_start_main@GLIBC_2.2.5>
  400d56:	68 0d 00 00 00       	pushq  $0xd
  400d5b:	e9 10 ff ff ff       	jmpq   400c70 <.plt>

0000000000400d60 <signal@plt>:
  400d60:	ff 25 22 43 20 00    	jmpq   *0x204322(%rip)        # 605088 <signal@GLIBC_2.2.5>
  400d66:	68 0e 00 00 00       	pushq  $0xe
  400d6b:	e9 00 ff ff ff       	jmpq   400c70 <.plt>

0000000000400d70 <gethostbyname@plt>:
  400d70:	ff 25 1a 43 20 00    	jmpq   *0x20431a(%rip)        # 605090 <gethostbyname@GLIBC_2.2.5>
  400d76:	68 0f 00 00 00       	pushq  $0xf
  400d7b:	e9 f0 fe ff ff       	jmpq   400c70 <.plt>

0000000000400d80 <__memmove_chk@plt>:
  400d80:	ff 25 12 43 20 00    	jmpq   *0x204312(%rip)        # 605098 <__memmove_chk@GLIBC_2.3.4>
  400d86:	68 10 00 00 00       	pushq  $0x10
  400d8b:	e9 e0 fe ff ff       	jmpq   400c70 <.plt>

0000000000400d90 <strtol@plt>:
  400d90:	ff 25 0a 43 20 00    	jmpq   *0x20430a(%rip)        # 6050a0 <strtol@GLIBC_2.2.5>
  400d96:	68 11 00 00 00       	pushq  $0x11
  400d9b:	e9 d0 fe ff ff       	jmpq   400c70 <.plt>

0000000000400da0 <memcpy@plt>:
  400da0:	ff 25 02 43 20 00    	jmpq   *0x204302(%rip)        # 6050a8 <memcpy@GLIBC_2.14>
  400da6:	68 12 00 00 00       	pushq  $0x12
  400dab:	e9 c0 fe ff ff       	jmpq   400c70 <.plt>

0000000000400db0 <time@plt>:
  400db0:	ff 25 fa 42 20 00    	jmpq   *0x2042fa(%rip)        # 6050b0 <time@GLIBC_2.2.5>
  400db6:	68 13 00 00 00       	pushq  $0x13
  400dbb:	e9 b0 fe ff ff       	jmpq   400c70 <.plt>

0000000000400dc0 <random@plt>:
  400dc0:	ff 25 f2 42 20 00    	jmpq   *0x2042f2(%rip)        # 6050b8 <random@GLIBC_2.2.5>
  400dc6:	68 14 00 00 00       	pushq  $0x14
  400dcb:	e9 a0 fe ff ff       	jmpq   400c70 <.plt>

0000000000400dd0 <_IO_getc@plt>:
  400dd0:	ff 25 ea 42 20 00    	jmpq   *0x2042ea(%rip)        # 6050c0 <_IO_getc@GLIBC_2.2.5>
  400dd6:	68 15 00 00 00       	pushq  $0x15
  400ddb:	e9 90 fe ff ff       	jmpq   400c70 <.plt>

0000000000400de0 <__isoc99_sscanf@plt>:
  400de0:	ff 25 e2 42 20 00    	jmpq   *0x2042e2(%rip)        # 6050c8 <__isoc99_sscanf@GLIBC_2.7>
  400de6:	68 16 00 00 00       	pushq  $0x16
  400deb:	e9 80 fe ff ff       	jmpq   400c70 <.plt>

0000000000400df0 <munmap@plt>:
  400df0:	ff 25 da 42 20 00    	jmpq   *0x2042da(%rip)        # 6050d0 <munmap@GLIBC_2.2.5>
  400df6:	68 17 00 00 00       	pushq  $0x17
  400dfb:	e9 70 fe ff ff       	jmpq   400c70 <.plt>

0000000000400e00 <__printf_chk@plt>:
  400e00:	ff 25 d2 42 20 00    	jmpq   *0x2042d2(%rip)        # 6050d8 <__printf_chk@GLIBC_2.3.4>
  400e06:	68 18 00 00 00       	pushq  $0x18
  400e0b:	e9 60 fe ff ff       	jmpq   400c70 <.plt>

0000000000400e10 <fopen@plt>:
  400e10:	ff 25 ca 42 20 00    	jmpq   *0x2042ca(%rip)        # 6050e0 <fopen@GLIBC_2.2.5>
  400e16:	68 19 00 00 00       	pushq  $0x19
  400e1b:	e9 50 fe ff ff       	jmpq   400c70 <.plt>

0000000000400e20 <getopt@plt>:
  400e20:	ff 25 c2 42 20 00    	jmpq   *0x2042c2(%rip)        # 6050e8 <getopt@GLIBC_2.2.5>
  400e26:	68 1a 00 00 00       	pushq  $0x1a
  400e2b:	e9 40 fe ff ff       	jmpq   400c70 <.plt>

0000000000400e30 <strtoul@plt>:
  400e30:	ff 25 ba 42 20 00    	jmpq   *0x2042ba(%rip)        # 6050f0 <strtoul@GLIBC_2.2.5>
  400e36:	68 1b 00 00 00       	pushq  $0x1b
  400e3b:	e9 30 fe ff ff       	jmpq   400c70 <.plt>

0000000000400e40 <gethostname@plt>:
  400e40:	ff 25 b2 42 20 00    	jmpq   *0x2042b2(%rip)        # 6050f8 <gethostname@GLIBC_2.2.5>
  400e46:	68 1c 00 00 00       	pushq  $0x1c
  400e4b:	e9 20 fe ff ff       	jmpq   400c70 <.plt>

0000000000400e50 <exit@plt>:
  400e50:	ff 25 aa 42 20 00    	jmpq   *0x2042aa(%rip)        # 605100 <exit@GLIBC_2.2.5>
  400e56:	68 1d 00 00 00       	pushq  $0x1d
  400e5b:	e9 10 fe ff ff       	jmpq   400c70 <.plt>

0000000000400e60 <connect@plt>:
  400e60:	ff 25 a2 42 20 00    	jmpq   *0x2042a2(%rip)        # 605108 <connect@GLIBC_2.2.5>
  400e66:	68 1e 00 00 00       	pushq  $0x1e
  400e6b:	e9 00 fe ff ff       	jmpq   400c70 <.plt>

0000000000400e70 <__fprintf_chk@plt>:
  400e70:	ff 25 9a 42 20 00    	jmpq   *0x20429a(%rip)        # 605110 <__fprintf_chk@GLIBC_2.3.4>
  400e76:	68 1f 00 00 00       	pushq  $0x1f
  400e7b:	e9 f0 fd ff ff       	jmpq   400c70 <.plt>

0000000000400e80 <__sprintf_chk@plt>:
  400e80:	ff 25 92 42 20 00    	jmpq   *0x204292(%rip)        # 605118 <__sprintf_chk@GLIBC_2.3.4>
  400e86:	68 20 00 00 00       	pushq  $0x20
  400e8b:	e9 e0 fd ff ff       	jmpq   400c70 <.plt>

0000000000400e90 <socket@plt>:
  400e90:	ff 25 8a 42 20 00    	jmpq   *0x20428a(%rip)        # 605120 <socket@GLIBC_2.2.5>
  400e96:	68 21 00 00 00       	pushq  $0x21
  400e9b:	e9 d0 fd ff ff       	jmpq   400c70 <.plt>

Desensamblado de la secci贸n .plt.got:

0000000000400ea0 <__gmon_start__@plt>:
  400ea0:	ff 25 52 41 20 00    	jmpq   *0x204152(%rip)        # 604ff8 <__gmon_start__>
  400ea6:	66 90                	xchg   %ax,%ax

Desensamblado de la secci贸n .text:

0000000000400eb0 <_start>:
  400eb0:	31 ed                	xor    %ebp,%ebp
  400eb2:	49 89 d1             	mov    %rdx,%r9
  400eb5:	5e                   	pop    %rsi
  400eb6:	48 89 e2             	mov    %rsp,%rdx
  400eb9:	48 83 e4 f0          	and    $0xfffffffffffffff0,%rsp
  400ebd:	50                   	push   %rax
  400ebe:	54                   	push   %rsp
  400ebf:	49 c7 c0 c0 2e 40 00 	mov    $0x402ec0,%r8
  400ec6:	48 c7 c1 50 2e 40 00 	mov    $0x402e50,%rcx
  400ecd:	48 c7 c7 89 11 40 00 	mov    $0x401189,%rdi
  400ed4:	e8 77 fe ff ff       	callq  400d50 <__libc_start_main@plt>
  400ed9:	f4                   	hlt    
  400eda:	66 0f 1f 44 00 00    	nopw   0x0(%rax,%rax,1)

0000000000400ee0 <deregister_tm_clones>:
  400ee0:	b8 b7 54 60 00       	mov    $0x6054b7,%eax
  400ee5:	55                   	push   %rbp
  400ee6:	48 2d b0 54 60 00    	sub    $0x6054b0,%rax
  400eec:	48 83 f8 0e          	cmp    $0xe,%rax
  400ef0:	48 89 e5             	mov    %rsp,%rbp
  400ef3:	76 1b                	jbe    400f10 <deregister_tm_clones+0x30>
  400ef5:	b8 00 00 00 00       	mov    $0x0,%eax
  400efa:	48 85 c0             	test   %rax,%rax
  400efd:	74 11                	je     400f10 <deregister_tm_clones+0x30>
  400eff:	5d                   	pop    %rbp
  400f00:	bf b0 54 60 00       	mov    $0x6054b0,%edi
  400f05:	ff e0                	jmpq   *%rax
  400f07:	66 0f 1f 84 00 00 00 	nopw   0x0(%rax,%rax,1)
  400f0e:	00 00 
  400f10:	5d                   	pop    %rbp
  400f11:	c3                   	retq   
  400f12:	0f 1f 40 00          	nopl   0x0(%rax)
  400f16:	66 2e 0f 1f 84 00 00 	nopw   %cs:0x0(%rax,%rax,1)
  400f1d:	00 00 00 

0000000000400f20 <register_tm_clones>:
  400f20:	be b0 54 60 00       	mov    $0x6054b0,%esi
  400f25:	55                   	push   %rbp
  400f26:	48 81 ee b0 54 60 00 	sub    $0x6054b0,%rsi
  400f2d:	48 c1 fe 03          	sar    $0x3,%rsi
  400f31:	48 89 e5             	mov    %rsp,%rbp
  400f34:	48 89 f0             	mov    %rsi,%rax
  400f37:	48 c1 e8 3f          	shr    $0x3f,%rax
  400f3b:	48 01 c6             	add    %rax,%rsi
  400f3e:	48 d1 fe             	sar    %rsi
  400f41:	74 15                	je     400f58 <register_tm_clones+0x38>
  400f43:	b8 00 00 00 00       	mov    $0x0,%eax
  400f48:	48 85 c0             	test   %rax,%rax
  400f4b:	74 0b                	je     400f58 <register_tm_clones+0x38>
  400f4d:	5d                   	pop    %rbp
  400f4e:	bf b0 54 60 00       	mov    $0x6054b0,%edi
  400f53:	ff e0                	jmpq   *%rax
  400f55:	0f 1f 00             	nopl   (%rax)
  400f58:	5d                   	pop    %rbp
  400f59:	c3                   	retq   
  400f5a:	66 0f 1f 44 00 00    	nopw   0x0(%rax,%rax,1)

0000000000400f60 <__do_global_dtors_aux>:
  400f60:	80 3d 81 45 20 00 00 	cmpb   $0x0,0x204581(%rip)        # 6054e8 <completed.7594>
  400f67:	75 11                	jne    400f7a <__do_global_dtors_aux+0x1a>
  400f69:	55                   	push   %rbp
  400f6a:	48 89 e5             	mov    %rsp,%rbp
  400f6d:	e8 6e ff ff ff       	callq  400ee0 <deregister_tm_clones>
  400f72:	5d                   	pop    %rbp
  400f73:	c6 05 6e 45 20 00 01 	movb   $0x1,0x20456e(%rip)        # 6054e8 <completed.7594>
  400f7a:	f3 c3                	repz retq 
  400f7c:	0f 1f 40 00          	nopl   0x0(%rax)

0000000000400f80 <frame_dummy>:
  400f80:	bf 20 4e 60 00       	mov    $0x604e20,%edi
  400f85:	48 83 3f 00          	cmpq   $0x0,(%rdi)
  400f89:	75 05                	jne    400f90 <frame_dummy+0x10>
  400f8b:	eb 93                	jmp    400f20 <register_tm_clones>
  400f8d:	0f 1f 00             	nopl   (%rax)
  400f90:	b8 00 00 00 00       	mov    $0x0,%eax
  400f95:	48 85 c0             	test   %rax,%rax
  400f98:	74 f1                	je     400f8b <frame_dummy+0xb>
  400f9a:	55                   	push   %rbp
  400f9b:	48 89 e5             	mov    %rsp,%rbp
  400f9e:	ff d0                	callq  *%rax
  400fa0:	5d                   	pop    %rbp
  400fa1:	e9 7a ff ff ff       	jmpq   400f20 <register_tm_clones>

0000000000400fa6 <usage>:
  400fa6:	48 83 ec 08          	sub    $0x8,%rsp
  400faa:	48 89 fa             	mov    %rdi,%rdx
  400fad:	83 3d 74 45 20 00 00 	cmpl   $0x0,0x204574(%rip)        # 605528 <is_checker>
  400fb4:	74 3e                	je     400ff4 <usage+0x4e>
  400fb6:	be d8 2e 40 00       	mov    $0x402ed8,%esi
  400fbb:	bf 01 00 00 00       	mov    $0x1,%edi
  400fc0:	b8 00 00 00 00       	mov    $0x0,%eax
  400fc5:	e8 36 fe ff ff       	callq  400e00 <__printf_chk@plt>
  400fca:	bf 10 2f 40 00       	mov    $0x402f10,%edi
  400fcf:	e8 fc fc ff ff       	callq  400cd0 <puts@plt>
  400fd4:	bf 48 30 40 00       	mov    $0x403048,%edi
  400fd9:	e8 f2 fc ff ff       	callq  400cd0 <puts@plt>
  400fde:	bf 38 2f 40 00       	mov    $0x402f38,%edi
  400fe3:	e8 e8 fc ff ff       	callq  400cd0 <puts@plt>
  400fe8:	bf 62 30 40 00       	mov    $0x403062,%edi
  400fed:	e8 de fc ff ff       	callq  400cd0 <puts@plt>
  400ff2:	eb 32                	jmp    401026 <usage+0x80>
  400ff4:	be 7e 30 40 00       	mov    $0x40307e,%esi
  400ff9:	bf 01 00 00 00       	mov    $0x1,%edi
  400ffe:	b8 00 00 00 00       	mov    $0x0,%eax
  401003:	e8 f8 fd ff ff       	callq  400e00 <__printf_chk@plt>
  401008:	bf 60 2f 40 00       	mov    $0x402f60,%edi
  40100d:	e8 be fc ff ff       	callq  400cd0 <puts@plt>
  401012:	bf 88 2f 40 00       	mov    $0x402f88,%edi
  401017:	e8 b4 fc ff ff       	callq  400cd0 <puts@plt>
  40101c:	bf 9c 30 40 00       	mov    $0x40309c,%edi
  401021:	e8 aa fc ff ff       	callq  400cd0 <puts@plt>
  401026:	bf 00 00 00 00       	mov    $0x0,%edi
  40102b:	e8 20 fe ff ff       	callq  400e50 <exit@plt>

0000000000401030 <initialize_target>:
  401030:	55                   	push   %rbp
  401031:	53                   	push   %rbx
  401032:	48 81 ec 18 21 00 00 	sub    $0x2118,%rsp
  401039:	89 f5                	mov    %esi,%ebp
  40103b:	64 48 8b 04 25 28 00 	mov    %fs:0x28,%rax
  401042:	00 00 
  401044:	48 89 84 24 08 21 00 	mov    %rax,0x2108(%rsp)
  40104b:	00 
  40104c:	31 c0                	xor    %eax,%eax
  40104e:	89 3d c4 44 20 00    	mov    %edi,0x2044c4(%rip)        # 605518 <check_level>
  401054:	8b 3d 0e 41 20 00    	mov    0x20410e(%rip),%edi        # 605168 <target_id>
  40105a:	e8 cd 1d 00 00       	callq  402e2c <gencookie>
  40105f:	89 05 bf 44 20 00    	mov    %eax,0x2044bf(%rip)        # 605524 <cookie>
  401065:	89 c7                	mov    %eax,%edi
  401067:	e8 c0 1d 00 00       	callq  402e2c <gencookie>
  40106c:	89 05 ae 44 20 00    	mov    %eax,0x2044ae(%rip)        # 605520 <authkey>
  401072:	8b 05 f0 40 20 00    	mov    0x2040f0(%rip),%eax        # 605168 <target_id>
  401078:	8d 78 01             	lea    0x1(%rax),%edi
  40107b:	e8 20 fc ff ff       	callq  400ca0 <srandom@plt>
  401080:	e8 3b fd ff ff       	callq  400dc0 <random@plt>
  401085:	89 c7                	mov    %eax,%edi
  401087:	e8 d7 02 00 00       	callq  401363 <scramble>
  40108c:	89 c3                	mov    %eax,%ebx
  40108e:	85 ed                	test   %ebp,%ebp
  401090:	74 18                	je     4010aa <initialize_target+0x7a>
  401092:	bf 00 00 00 00       	mov    $0x0,%edi
  401097:	e8 14 fd ff ff       	callq  400db0 <time@plt>
  40109c:	89 c7                	mov    %eax,%edi
  40109e:	e8 fd fb ff ff       	callq  400ca0 <srandom@plt>
  4010a3:	e8 18 fd ff ff       	callq  400dc0 <random@plt>
  4010a8:	eb 05                	jmp    4010af <initialize_target+0x7f>
  4010aa:	b8 00 00 00 00       	mov    $0x0,%eax
  4010af:	01 c3                	add    %eax,%ebx
  4010b1:	0f b7 db             	movzwl %bx,%ebx
  4010b4:	8d 04 dd 00 01 00 00 	lea    0x100(,%rbx,8),%eax
  4010bb:	89 c0                	mov    %eax,%eax
  4010bd:	48 89 05 dc 43 20 00 	mov    %rax,0x2043dc(%rip)        # 6054a0 <buf_offset>
  4010c4:	c6 05 7d 50 20 00 72 	movb   $0x72,0x20507d(%rip)        # 606148 <target_prefix>
  4010cb:	83 3d d6 43 20 00 00 	cmpl   $0x0,0x2043d6(%rip)        # 6054a8 <notify>
  4010d2:	0f 84 8f 00 00 00    	je     401167 <initialize_target+0x137>
  4010d8:	83 3d 49 44 20 00 00 	cmpl   $0x0,0x204449(%rip)        # 605528 <is_checker>
  4010df:	0f 85 82 00 00 00    	jne    401167 <initialize_target+0x137>
  4010e5:	be 00 01 00 00       	mov    $0x100,%esi
  4010ea:	48 89 e7             	mov    %rsp,%rdi
  4010ed:	e8 4e fd ff ff       	callq  400e40 <gethostname@plt>
  4010f2:	85 c0                	test   %eax,%eax
  4010f4:	74 25                	je     40111b <initialize_target+0xeb>
  4010f6:	bf b8 2f 40 00       	mov    $0x402fb8,%edi
  4010fb:	e8 d0 fb ff ff       	callq  400cd0 <puts@plt>
  401100:	bf 08 00 00 00       	mov    $0x8,%edi
  401105:	e8 46 fd ff ff       	callq  400e50 <exit@plt>
  40110a:	48 89 e6             	mov    %rsp,%rsi
  40110d:	e8 6e fb ff ff       	callq  400c80 <strcasecmp@plt>
  401112:	85 c0                	test   %eax,%eax
  401114:	74 1a                	je     401130 <initialize_target+0x100>
  401116:	83 c3 01             	add    $0x1,%ebx
  401119:	eb 05                	jmp    401120 <initialize_target+0xf0>
  40111b:	bb 00 00 00 00       	mov    $0x0,%ebx
  401120:	48 63 c3             	movslq %ebx,%rax
  401123:	48 8b 3c c5 80 51 60 	mov    0x605180(,%rax,8),%rdi
  40112a:	00 
  40112b:	48 85 ff             	test   %rdi,%rdi
  40112e:	75 da                	jne    40110a <initialize_target+0xda>
  401130:	48 8d bc 24 00 01 00 	lea    0x100(%rsp),%rdi
  401137:	00 
  401138:	e8 59 1a 00 00       	callq  402b96 <init_driver>
  40113d:	85 c0                	test   %eax,%eax
  40113f:	79 26                	jns    401167 <initialize_target+0x137>
  401141:	48 8d 94 24 00 01 00 	lea    0x100(%rsp),%rdx
  401148:	00 
  401149:	be f0 2f 40 00       	mov    $0x402ff0,%esi
  40114e:	bf 01 00 00 00       	mov    $0x1,%edi
  401153:	b8 00 00 00 00       	mov    $0x0,%eax
  401158:	e8 a3 fc ff ff       	callq  400e00 <__printf_chk@plt>
  40115d:	bf 08 00 00 00       	mov    $0x8,%edi
  401162:	e8 e9 fc ff ff       	callq  400e50 <exit@plt>
  401167:	48 8b 84 24 08 21 00 	mov    0x2108(%rsp),%rax
  40116e:	00 
  40116f:	64 48 33 04 25 28 00 	xor    %fs:0x28,%rax
  401176:	00 00 
  401178:	74 05                	je     40117f <initialize_target+0x14f>
  40117a:	e8 71 fb ff ff       	callq  400cf0 <__stack_chk_fail@plt>
  40117f:	48 81 c4 18 21 00 00 	add    $0x2118,%rsp
  401186:	5b                   	pop    %rbx
  401187:	5d                   	pop    %rbp
  401188:	c3                   	retq   

0000000000401189 <main>:
  401189:	41 56                	push   %r14
  40118b:	41 55                	push   %r13
  40118d:	41 54                	push   %r12
  40118f:	55                   	push   %rbp
  401190:	53                   	push   %rbx
  401191:	41 89 fc             	mov    %edi,%r12d
  401194:	48 89 f3             	mov    %rsi,%rbx
  401197:	be d1 1e 40 00       	mov    $0x401ed1,%esi
  40119c:	bf 0b 00 00 00       	mov    $0xb,%edi
  4011a1:	e8 ba fb ff ff       	callq  400d60 <signal@plt>
  4011a6:	be 83 1e 40 00       	mov    $0x401e83,%esi
  4011ab:	bf 07 00 00 00       	mov    $0x7,%edi
  4011b0:	e8 ab fb ff ff       	callq  400d60 <signal@plt>
  4011b5:	be 1f 1f 40 00       	mov    $0x401f1f,%esi
  4011ba:	bf 04 00 00 00       	mov    $0x4,%edi
  4011bf:	e8 9c fb ff ff       	callq  400d60 <signal@plt>
  4011c4:	83 3d 5d 43 20 00 00 	cmpl   $0x0,0x20435d(%rip)        # 605528 <is_checker>
  4011cb:	74 20                	je     4011ed <main+0x64>
  4011cd:	be 6d 1f 40 00       	mov    $0x401f6d,%esi
  4011d2:	bf 0e 00 00 00       	mov    $0xe,%edi
  4011d7:	e8 84 fb ff ff       	callq  400d60 <signal@plt>
  4011dc:	bf 05 00 00 00       	mov    $0x5,%edi
  4011e1:	e8 3a fb ff ff       	callq  400d20 <alarm@plt>
  4011e6:	bd ba 30 40 00       	mov    $0x4030ba,%ebp
  4011eb:	eb 05                	jmp    4011f2 <main+0x69>
  4011ed:	bd b5 30 40 00       	mov    $0x4030b5,%ebp
  4011f2:	48 8b 05 c7 42 20 00 	mov    0x2042c7(%rip),%rax        # 6054c0 <stdin@@GLIBC_2.2.5>
  4011f9:	48 89 05 10 43 20 00 	mov    %rax,0x204310(%rip)        # 605510 <infile>
  401200:	41 bd 00 00 00 00    	mov    $0x0,%r13d
  401206:	41 be 00 00 00 00    	mov    $0x0,%r14d
  40120c:	e9 c6 00 00 00       	jmpq   4012d7 <main+0x14e>
  401211:	83 e8 61             	sub    $0x61,%eax
  401214:	3c 10                	cmp    $0x10,%al
  401216:	0f 87 9c 00 00 00    	ja     4012b8 <main+0x12f>
  40121c:	0f b6 c0             	movzbl %al,%eax
  40121f:	ff 24 c5 00 31 40 00 	jmpq   *0x403100(,%rax,8)
  401226:	48 8b 3b             	mov    (%rbx),%rdi
  401229:	e8 78 fd ff ff       	callq  400fa6 <usage>
  40122e:	be 7d 33 40 00       	mov    $0x40337d,%esi
  401233:	48 8b 3d 8e 42 20 00 	mov    0x20428e(%rip),%rdi        # 6054c8 <optarg@@GLIBC_2.2.5>
  40123a:	e8 d1 fb ff ff       	callq  400e10 <fopen@plt>
  40123f:	48 89 05 ca 42 20 00 	mov    %rax,0x2042ca(%rip)        # 605510 <infile>
  401246:	48 85 c0             	test   %rax,%rax
  401249:	0f 85 88 00 00 00    	jne    4012d7 <main+0x14e>
  40124f:	48 8b 0d 72 42 20 00 	mov    0x204272(%rip),%rcx        # 6054c8 <optarg@@GLIBC_2.2.5>
  401256:	ba c2 30 40 00       	mov    $0x4030c2,%edx
  40125b:	be 01 00 00 00       	mov    $0x1,%esi
  401260:	48 8b 3d 79 42 20 00 	mov    0x204279(%rip),%rdi        # 6054e0 <stderr@@GLIBC_2.2.5>
  401267:	e8 04 fc ff ff       	callq  400e70 <__fprintf_chk@plt>
  40126c:	b8 01 00 00 00       	mov    $0x1,%eax
  401271:	e9 e4 00 00 00       	jmpq   40135a <main+0x1d1>
  401276:	ba 10 00 00 00       	mov    $0x10,%edx
  40127b:	be 00 00 00 00       	mov    $0x0,%esi
  401280:	48 8b 3d 41 42 20 00 	mov    0x204241(%rip),%rdi        # 6054c8 <optarg@@GLIBC_2.2.5>
  401287:	e8 a4 fb ff ff       	callq  400e30 <strtoul@plt>
  40128c:	41 89 c6             	mov    %eax,%r14d
  40128f:	eb 46                	jmp    4012d7 <main+0x14e>
  401291:	ba 0a 00 00 00       	mov    $0xa,%edx
  401296:	be 00 00 00 00       	mov    $0x0,%esi
  40129b:	48 8b 3d 26 42 20 00 	mov    0x204226(%rip),%rdi        # 6054c8 <optarg@@GLIBC_2.2.5>
  4012a2:	e8 e9 fa ff ff       	callq  400d90 <strtol@plt>
  4012a7:	41 89 c5             	mov    %eax,%r13d
  4012aa:	eb 2b                	jmp    4012d7 <main+0x14e>
  4012ac:	c7 05 f2 41 20 00 00 	movl   $0x0,0x2041f2(%rip)        # 6054a8 <notify>
  4012b3:	00 00 00 
  4012b6:	eb 1f                	jmp    4012d7 <main+0x14e>
  4012b8:	0f be d2             	movsbl %dl,%edx
  4012bb:	be df 30 40 00       	mov    $0x4030df,%esi
  4012c0:	bf 01 00 00 00       	mov    $0x1,%edi
  4012c5:	b8 00 00 00 00       	mov    $0x0,%eax
  4012ca:	e8 31 fb ff ff       	callq  400e00 <__printf_chk@plt>
  4012cf:	48 8b 3b             	mov    (%rbx),%rdi
  4012d2:	e8 cf fc ff ff       	callq  400fa6 <usage>
  4012d7:	48 89 ea             	mov    %rbp,%rdx
  4012da:	48 89 de             	mov    %rbx,%rsi
  4012dd:	44 89 e7             	mov    %r12d,%edi
  4012e0:	e8 3b fb ff ff       	callq  400e20 <getopt@plt>
  4012e5:	89 c2                	mov    %eax,%edx
  4012e7:	3c ff                	cmp    $0xff,%al
  4012e9:	0f 85 22 ff ff ff    	jne    401211 <main+0x88>
  4012ef:	be 01 00 00 00       	mov    $0x1,%esi
  4012f4:	44 89 ef             	mov    %r13d,%edi
  4012f7:	e8 34 fd ff ff       	callq  401030 <initialize_target>
  4012fc:	83 3d 25 42 20 00 00 	cmpl   $0x0,0x204225(%rip)        # 605528 <is_checker>
  401303:	74 2a                	je     40132f <main+0x1a6>
  401305:	44 3b 35 14 42 20 00 	cmp    0x204214(%rip),%r14d        # 605520 <authkey>
  40130c:	74 21                	je     40132f <main+0x1a6>
  40130e:	44 89 f2             	mov    %r14d,%edx
  401311:	be 18 30 40 00       	mov    $0x403018,%esi
  401316:	bf 01 00 00 00       	mov    $0x1,%edi
  40131b:	b8 00 00 00 00       	mov    $0x0,%eax
  401320:	e8 db fa ff ff       	callq  400e00 <__printf_chk@plt>
  401325:	b8 00 00 00 00       	mov    $0x0,%eax
  40132a:	e8 f0 07 00 00       	callq  401b1f <check_fail>
  40132f:	8b 15 ef 41 20 00    	mov    0x2041ef(%rip),%edx        # 605524 <cookie>
  401335:	be f2 30 40 00       	mov    $0x4030f2,%esi
  40133a:	bf 01 00 00 00       	mov    $0x1,%edi
  40133f:	b8 00 00 00 00       	mov    $0x0,%eax
  401344:	e8 b7 fa ff ff       	callq  400e00 <__printf_chk@plt>
  401349:	48 8b 3d 50 41 20 00 	mov    0x204150(%rip),%rdi        # 6054a0 <buf_offset>
  401350:	e8 6b 0c 00 00       	callq  401fc0 <launch>
  401355:	b8 00 00 00 00       	mov    $0x0,%eax
  40135a:	5b                   	pop    %rbx
  40135b:	5d                   	pop    %rbp
  40135c:	41 5c                	pop    %r12
  40135e:	41 5d                	pop    %r13
  401360:	41 5e                	pop    %r14
  401362:	c3                   	retq   

0000000000401363 <scramble>:
  401363:	48 83 ec 38          	sub    $0x38,%rsp
  401367:	64 48 8b 04 25 28 00 	mov    %fs:0x28,%rax
  40136e:	00 00 
  401370:	48 89 44 24 28       	mov    %rax,0x28(%rsp)
  401375:	31 c0                	xor    %eax,%eax
  401377:	eb 10                	jmp    401389 <scramble+0x26>
  401379:	69 d0 52 3b 00 00    	imul   $0x3b52,%eax,%edx
  40137f:	01 fa                	add    %edi,%edx
  401381:	89 c1                	mov    %eax,%ecx
  401383:	89 14 8c             	mov    %edx,(%rsp,%rcx,4)
  401386:	83 c0 01             	add    $0x1,%eax
  401389:	83 f8 09             	cmp    $0x9,%eax
  40138c:	76 eb                	jbe    401379 <scramble+0x16>
  40138e:	8b 44 24 24          	mov    0x24(%rsp),%eax
  401392:	69 c0 61 5f 00 00    	imul   $0x5f61,%eax,%eax
  401398:	89 44 24 24          	mov    %eax,0x24(%rsp)
  40139c:	8b 44 24 04          	mov    0x4(%rsp),%eax
  4013a0:	69 c0 b8 7d 00 00    	imul   $0x7db8,%eax,%eax
  4013a6:	89 44 24 04          	mov    %eax,0x4(%rsp)
  4013aa:	8b 44 24 04          	mov    0x4(%rsp),%eax
  4013ae:	69 c0 ee e1 00 00    	imul   $0xe1ee,%eax,%eax
  4013b4:	89 44 24 04          	mov    %eax,0x4(%rsp)
  4013b8:	8b 44 24 04          	mov    0x4(%rsp),%eax
  4013bc:	69 c0 c8 24 00 00    	imul   $0x24c8,%eax,%eax
  4013c2:	89 44 24 04          	mov    %eax,0x4(%rsp)
  4013c6:	8b 44 24 10          	mov    0x10(%rsp),%eax
  4013ca:	69 c0 8e 45 00 00    	imul   $0x458e,%eax,%eax
  4013d0:	89 44 24 10          	mov    %eax,0x10(%rsp)
  4013d4:	8b 44 24 24          	mov    0x24(%rsp),%eax
  4013d8:	69 c0 f7 34 00 00    	imul   $0x34f7,%eax,%eax
  4013de:	89 44 24 24          	mov    %eax,0x24(%rsp)
  4013e2:	8b 44 24 24          	mov    0x24(%rsp),%eax
  4013e6:	69 c0 d8 14 00 00    	imul   $0x14d8,%eax,%eax
  4013ec:	89 44 24 24          	mov    %eax,0x24(%rsp)
  4013f0:	8b 44 24 1c          	mov    0x1c(%rsp),%eax
  4013f4:	69 c0 ed 67 00 00    	imul   $0x67ed,%eax,%eax
  4013fa:	89 44 24 1c          	mov    %eax,0x1c(%rsp)
  4013fe:	8b 44 24 24          	mov    0x24(%rsp),%eax
  401402:	69 c0 23 35 00 00    	imul   $0x3523,%eax,%eax
  401408:	89 44 24 24          	mov    %eax,0x24(%rsp)
  40140c:	8b 44 24 18          	mov    0x18(%rsp),%eax
  401410:	69 c0 91 1c 00 00    	imul   $0x1c91,%eax,%eax
  401416:	89 44 24 18          	mov    %eax,0x18(%rsp)
  40141a:	8b 44 24 04          	mov    0x4(%rsp),%eax
  40141e:	69 c0 d1 79 00 00    	imul   $0x79d1,%eax,%eax
  401424:	89 44 24 04          	mov    %eax,0x4(%rsp)
  401428:	8b 44 24 0c          	mov    0xc(%rsp),%eax
  40142c:	69 c0 59 e3 00 00    	imul   $0xe359,%eax,%eax
  401432:	89 44 24 0c          	mov    %eax,0xc(%rsp)
  401436:	8b 44 24 04          	mov    0x4(%rsp),%eax
  40143a:	69 c0 40 9b 00 00    	imul   $0x9b40,%eax,%eax
  401440:	89 44 24 04          	mov    %eax,0x4(%rsp)
  401444:	8b 44 24 10          	mov    0x10(%rsp),%eax
  401448:	69 c0 1f df 00 00    	imul   $0xdf1f,%eax,%eax
  40144e:	89 44 24 10          	mov    %eax,0x10(%rsp)
  401452:	8b 44 24 18          	mov    0x18(%rsp),%eax
  401456:	69 c0 1d d6 00 00    	imul   $0xd61d,%eax,%eax
  40145c:	89 44 24 18          	mov    %eax,0x18(%rsp)
  401460:	8b 44 24 10          	mov    0x10(%rsp),%eax
  401464:	69 c0 df 09 00 00    	imul   $0x9df,%eax,%eax
  40146a:	89 44 24 10          	mov    %eax,0x10(%rsp)
  40146e:	8b 44 24 0c          	mov    0xc(%rsp),%eax
  401472:	69 c0 2d 0b 00 00    	imul   $0xb2d,%eax,%eax
  401478:	89 44 24 0c          	mov    %eax,0xc(%rsp)
  40147c:	8b 04 24             	mov    (%rsp),%eax
  40147f:	69 c0 7b 79 00 00    	imul   $0x797b,%eax,%eax
  401485:	89 04 24             	mov    %eax,(%rsp)
  401488:	8b 44 24 20          	mov    0x20(%rsp),%eax
  40148c:	69 c0 30 0b 00 00    	imul   $0xb30,%eax,%eax
  401492:	89 44 24 20          	mov    %eax,0x20(%rsp)
  401496:	8b 44 24 10          	mov    0x10(%rsp),%eax
  40149a:	69 c0 1d 4c 00 00    	imul   $0x4c1d,%eax,%eax
  4014a0:	89 44 24 10          	mov    %eax,0x10(%rsp)
  4014a4:	8b 04 24             	mov    (%rsp),%eax
  4014a7:	69 c0 00 e3 00 00    	imul   $0xe300,%eax,%eax
  4014ad:	89 04 24             	mov    %eax,(%rsp)
  4014b0:	8b 44 24 20          	mov    0x20(%rsp),%eax
  4014b4:	69 c0 47 be 00 00    	imul   $0xbe47,%eax,%eax
  4014ba:	89 44 24 20          	mov    %eax,0x20(%rsp)
  4014be:	8b 44 24 04          	mov    0x4(%rsp),%eax
  4014c2:	69 c0 f5 a7 00 00    	imul   $0xa7f5,%eax,%eax
  4014c8:	89 44 24 04          	mov    %eax,0x4(%rsp)
  4014cc:	8b 44 24 04          	mov    0x4(%rsp),%eax
  4014d0:	69 c0 ef 9b 00 00    	imul   $0x9bef,%eax,%eax
  4014d6:	89 44 24 04          	mov    %eax,0x4(%rsp)
  4014da:	8b 44 24 08          	mov    0x8(%rsp),%eax
  4014de:	69 c0 d8 73 00 00    	imul   $0x73d8,%eax,%eax
  4014e4:	89 44 24 08          	mov    %eax,0x8(%rsp)
  4014e8:	8b 44 24 0c          	mov    0xc(%rsp),%eax
  4014ec:	69 c0 81 3a 00 00    	imul   $0x3a81,%eax,%eax
  4014f2:	89 44 24 0c          	mov    %eax,0xc(%rsp)
  4014f6:	8b 44 24 18          	mov    0x18(%rsp),%eax
  4014fa:	69 c0 3b 42 00 00    	imul   $0x423b,%eax,%eax
  401500:	89 44 24 18          	mov    %eax,0x18(%rsp)
  401504:	8b 44 24 14          	mov    0x14(%rsp),%eax
  401508:	69 c0 a6 fb 00 00    	imul   $0xfba6,%eax,%eax
  40150e:	89 44 24 14          	mov    %eax,0x14(%rsp)
  401512:	8b 44 24 0c          	mov    0xc(%rsp),%eax
  401516:	69 c0 7a 57 00 00    	imul   $0x577a,%eax,%eax
  40151c:	89 44 24 0c          	mov    %eax,0xc(%rsp)
  401520:	8b 44 24 14          	mov    0x14(%rsp),%eax
  401524:	69 c0 08 ac 00 00    	imul   $0xac08,%eax,%eax
  40152a:	89 44 24 14          	mov    %eax,0x14(%rsp)
  40152e:	8b 44 24 1c          	mov    0x1c(%rsp),%eax
  401532:	69 c0 ac 01 00 00    	imul   $0x1ac,%eax,%eax
  401538:	89 44 24 1c          	mov    %eax,0x1c(%rsp)
  40153c:	8b 44 24 1c          	mov    0x1c(%rsp),%eax
  401540:	69 c0 15 63 00 00    	imul   $0x6315,%eax,%eax
  401546:	89 44 24 1c          	mov    %eax,0x1c(%rsp)
  40154a:	8b 44 24 24          	mov    0x24(%rsp),%eax
  40154e:	69 c0 7e 3d 00 00    	imul   $0x3d7e,%eax,%eax
  401554:	89 44 24 24          	mov    %eax,0x24(%rsp)
  401558:	8b 44 24 10          	mov    0x10(%rsp),%eax
  40155c:	69 c0 f5 f9 00 00    	imul   $0xf9f5,%eax,%eax
  401562:	89 44 24 10          	mov    %eax,0x10(%rsp)
  401566:	8b 44 24 08          	mov    0x8(%rsp),%eax
  40156a:	69 c0 d5 7a 00 00    	imul   $0x7ad5,%eax,%eax
  401570:	89 44 24 08          	mov    %eax,0x8(%rsp)
  401574:	8b 44 24 0c          	mov    0xc(%rsp),%eax
  401578:	69 c0 6d 99 00 00    	imul   $0x996d,%eax,%eax
  40157e:	89 44 24 0c          	mov    %eax,0xc(%rsp)
  401582:	8b 44 24 20          	mov    0x20(%rsp),%eax
  401586:	69 c0 27 c7 00 00    	imul   $0xc727,%eax,%eax
  40158c:	89 44 24 20          	mov    %eax,0x20(%rsp)
  401590:	8b 44 24 10          	mov    0x10(%rsp),%eax
  401594:	69 c0 ad 55 00 00    	imul   $0x55ad,%eax,%eax
  40159a:	89 44 24 10          	mov    %eax,0x10(%rsp)
  40159e:	8b 44 24 20          	mov    0x20(%rsp),%eax
  4015a2:	69 c0 e9 7d 00 00    	imul   $0x7de9,%eax,%eax
  4015a8:	89 44 24 20          	mov    %eax,0x20(%rsp)
  4015ac:	8b 44 24 04          	mov    0x4(%rsp),%eax
  4015b0:	69 c0 35 4c 00 00    	imul   $0x4c35,%eax,%eax
  4015b6:	89 44 24 04          	mov    %eax,0x4(%rsp)
  4015ba:	8b 44 24 08          	mov    0x8(%rsp),%eax
  4015be:	69 c0 1c aa 00 00    	imul   $0xaa1c,%eax,%eax
  4015c4:	89 44 24 08          	mov    %eax,0x8(%rsp)
  4015c8:	8b 44 24 1c          	mov    0x1c(%rsp),%eax
  4015cc:	69 c0 6a df 00 00    	imul   $0xdf6a,%eax,%eax
  4015d2:	89 44 24 1c          	mov    %eax,0x1c(%rsp)
  4015d6:	8b 44 24 10          	mov    0x10(%rsp),%eax
  4015da:	69 c0 91 a4 00 00    	imul   $0xa491,%eax,%eax
  4015e0:	89 44 24 10          	mov    %eax,0x10(%rsp)
  4015e4:	8b 44 24 24          	mov    0x24(%rsp),%eax
  4015e8:	69 c0 d3 c9 00 00    	imul   $0xc9d3,%eax,%eax
  4015ee:	89 44 24 24          	mov    %eax,0x24(%rsp)
  4015f2:	8b 44 24 14          	mov    0x14(%rsp),%eax
  4015f6:	69 c0 d6 b5 00 00    	imul   $0xb5d6,%eax,%eax
  4015fc:	89 44 24 14          	mov    %eax,0x14(%rsp)
  401600:	8b 44 24 08          	mov    0x8(%rsp),%eax
  401604:	69 c0 a2 29 00 00    	imul   $0x29a2,%eax,%eax
  40160a:	89 44 24 08          	mov    %eax,0x8(%rsp)
  40160e:	8b 44 24 1c          	mov    0x1c(%rsp),%eax
  401612:	69 c0 c2 2b 00 00    	imul   $0x2bc2,%eax,%eax
  401618:	89 44 24 1c          	mov    %eax,0x1c(%rsp)
  40161c:	8b 44 24 10          	mov    0x10(%rsp),%eax
  401620:	69 c0 5b c4 00 00    	imul   $0xc45b,%eax,%eax
  401626:	89 44 24 10          	mov    %eax,0x10(%rsp)
  40162a:	8b 44 24 04          	mov    0x4(%rsp),%eax
  40162e:	69 c0 48 69 00 00    	imul   $0x6948,%eax,%eax
  401634:	89 44 24 04          	mov    %eax,0x4(%rsp)
  401638:	8b 44 24 1c          	mov    0x1c(%rsp),%eax
  40163c:	69 c0 ee b1 00 00    	imul   $0xb1ee,%eax,%eax
  401642:	89 44 24 1c          	mov    %eax,0x1c(%rsp)
  401646:	8b 44 24 04          	mov    0x4(%rsp),%eax
  40164a:	69 c0 63 04 00 00    	imul   $0x463,%eax,%eax
  401650:	89 44 24 04          	mov    %eax,0x4(%rsp)
  401654:	8b 44 24 20          	mov    0x20(%rsp),%eax
  401658:	69 c0 f2 41 00 00    	imul   $0x41f2,%eax,%eax
  40165e:	89 44 24 20          	mov    %eax,0x20(%rsp)
  401662:	8b 44 24 0c          	mov    0xc(%rsp),%eax
  401666:	69 c0 10 a3 00 00    	imul   $0xa310,%eax,%eax
  40166c:	89 44 24 0c          	mov    %eax,0xc(%rsp)
  401670:	8b 44 24 04          	mov    0x4(%rsp),%eax
  401674:	69 c0 a7 3a 00 00    	imul   $0x3aa7,%eax,%eax
  40167a:	89 44 24 04          	mov    %eax,0x4(%rsp)
  40167e:	8b 44 24 08          	mov    0x8(%rsp),%eax
  401682:	69 c0 3b 89 00 00    	imul   $0x893b,%eax,%eax
  401688:	89 44 24 08          	mov    %eax,0x8(%rsp)
  40168c:	8b 44 24 14          	mov    0x14(%rsp),%eax
  401690:	69 c0 bb 12 00 00    	imul   $0x12bb,%eax,%eax
  401696:	89 44 24 14          	mov    %eax,0x14(%rsp)
  40169a:	8b 44 24 04          	mov    0x4(%rsp),%eax
  40169e:	69 c0 93 0d 00 00    	imul   $0xd93,%eax,%eax
  4016a4:	89 44 24 04          	mov    %eax,0x4(%rsp)
  4016a8:	8b 44 24 20          	mov    0x20(%rsp),%eax
  4016ac:	69 c0 af 1f 00 00    	imul   $0x1faf,%eax,%eax
  4016b2:	89 44 24 20          	mov    %eax,0x20(%rsp)
  4016b6:	8b 44 24 20          	mov    0x20(%rsp),%eax
  4016ba:	69 c0 36 cd 00 00    	imul   $0xcd36,%eax,%eax
  4016c0:	89 44 24 20          	mov    %eax,0x20(%rsp)
  4016c4:	8b 44 24 18          	mov    0x18(%rsp),%eax
  4016c8:	69 c0 2f ae 00 00    	imul   $0xae2f,%eax,%eax
  4016ce:	89 44 24 18          	mov    %eax,0x18(%rsp)
  4016d2:	8b 44 24 14          	mov    0x14(%rsp),%eax
  4016d6:	69 c0 5d 5f 00 00    	imul   $0x5f5d,%eax,%eax
  4016dc:	89 44 24 14          	mov    %eax,0x14(%rsp)
  4016e0:	8b 44 24 1c          	mov    0x1c(%rsp),%eax
  4016e4:	69 c0 8e 3a 00 00    	imul   $0x3a8e,%eax,%eax
  4016ea:	89 44 24 1c          	mov    %eax,0x1c(%rsp)
  4016ee:	8b 44 24 04          	mov    0x4(%rsp),%eax
  4016f2:	69 c0 88 64 00 00    	imul   $0x6488,%eax,%eax
  4016f8:	89 44 24 04          	mov    %eax,0x4(%rsp)
  4016fc:	8b 44 24 04          	mov    0x4(%rsp),%eax
  401700:	69 c0 5f f4 00 00    	imul   $0xf45f,%eax,%eax
  401706:	89 44 24 04          	mov    %eax,0x4(%rsp)
  40170a:	8b 44 24 04          	mov    0x4(%rsp),%eax
  40170e:	69 c0 3a bd 00 00    	imul   $0xbd3a,%eax,%eax
  401714:	89 44 24 04          	mov    %eax,0x4(%rsp)
  401718:	8b 44 24 18          	mov    0x18(%rsp),%eax
  40171c:	69 c0 ee b1 00 00    	imul   $0xb1ee,%eax,%eax
  401722:	89 44 24 18          	mov    %eax,0x18(%rsp)
  401726:	8b 44 24 04          	mov    0x4(%rsp),%eax
  40172a:	69 c0 a9 f1 00 00    	imul   $0xf1a9,%eax,%eax
  401730:	89 44 24 04          	mov    %eax,0x4(%rsp)
  401734:	8b 44 24 14          	mov    0x14(%rsp),%eax
  401738:	69 c0 28 8d 00 00    	imul   $0x8d28,%eax,%eax
  40173e:	89 44 24 14          	mov    %eax,0x14(%rsp)
  401742:	8b 44 24 04          	mov    0x4(%rsp),%eax
  401746:	69 c0 80 8b 00 00    	imul   $0x8b80,%eax,%eax
  40174c:	89 44 24 04          	mov    %eax,0x4(%rsp)
  401750:	8b 04 24             	mov    (%rsp),%eax
  401753:	69 c0 b2 b5 00 00    	imul   $0xb5b2,%eax,%eax
  401759:	89 04 24             	mov    %eax,(%rsp)
  40175c:	8b 44 24 04          	mov    0x4(%rsp),%eax
  401760:	69 c0 ac 4e 00 00    	imul   $0x4eac,%eax,%eax
  401766:	89 44 24 04          	mov    %eax,0x4(%rsp)
  40176a:	8b 44 24 0c          	mov    0xc(%rsp),%eax
  40176e:	69 c0 13 48 00 00    	imul   $0x4813,%eax,%eax
  401774:	89 44 24 0c          	mov    %eax,0xc(%rsp)
  401778:	ba 00 00 00 00       	mov    $0x0,%edx
  40177d:	b8 00 00 00 00       	mov    $0x0,%eax
  401782:	eb 0a                	jmp    40178e <scramble+0x42b>
  401784:	89 d1                	mov    %edx,%ecx
  401786:	8b 0c 8c             	mov    (%rsp,%rcx,4),%ecx
  401789:	01 c8                	add    %ecx,%eax
  40178b:	83 c2 01             	add    $0x1,%edx
  40178e:	83 fa 09             	cmp    $0x9,%edx
  401791:	76 f1                	jbe    401784 <scramble+0x421>
  401793:	48 8b 74 24 28       	mov    0x28(%rsp),%rsi
  401798:	64 48 33 34 25 28 00 	xor    %fs:0x28,%rsi
  40179f:	00 00 
  4017a1:	74 05                	je     4017a8 <scramble+0x445>
  4017a3:	e8 48 f5 ff ff       	callq  400cf0 <__stack_chk_fail@plt>
  4017a8:	48 83 c4 38          	add    $0x38,%rsp
  4017ac:	c3                   	retq   

00000000004017ad <getbuf>:
  4017ad:	48 83 ec 28          	sub    $0x28,%rsp
  4017b1:	48 89 e7             	mov    %rsp,%rdi
  4017b4:	e8 9b 03 00 00       	callq  401b54 <Gets>
  4017b9:	b8 01 00 00 00       	mov    $0x1,%eax
  4017be:	48 83 c4 28          	add    $0x28,%rsp
  4017c2:	c3                   	retq   

00000000004017c3 <touch1>:
  4017c3:	48 83 ec 08          	sub    $0x8,%rsp
  4017c7:	c7 05 4b 3d 20 00 01 	movl   $0x1,0x203d4b(%rip)        # 60551c <vlevel>
  4017ce:	00 00 00 
  4017d1:	bf d6 31 40 00       	mov    $0x4031d6,%edi
  4017d6:	e8 f5 f4 ff ff       	callq  400cd0 <puts@plt>
  4017db:	bf 01 00 00 00       	mov    $0x1,%edi
  4017e0:	e8 b4 05 00 00       	callq  401d99 <validate>
  4017e5:	bf 00 00 00 00       	mov    $0x0,%edi
  4017ea:	e8 61 f6 ff ff       	callq  400e50 <exit@plt>

00000000004017ef <touch2>:
  4017ef:	48 83 ec 08          	sub    $0x8,%rsp
  4017f3:	89 fa                	mov    %edi,%edx
  4017f5:	c7 05 1d 3d 20 00 02 	movl   $0x2,0x203d1d(%rip)        # 60551c <vlevel>
  4017fc:	00 00 00 
  4017ff:	39 3d 1f 3d 20 00    	cmp    %edi,0x203d1f(%rip)        # 605524 <cookie>
  401805:	75 20                	jne    401827 <touch2+0x38>
  401807:	be f8 31 40 00       	mov    $0x4031f8,%esi
  40180c:	bf 01 00 00 00       	mov    $0x1,%edi
  401811:	b8 00 00 00 00       	mov    $0x0,%eax
  401816:	e8 e5 f5 ff ff       	callq  400e00 <__printf_chk@plt>
  40181b:	bf 02 00 00 00       	mov    $0x2,%edi
  401820:	e8 74 05 00 00       	callq  401d99 <validate>
  401825:	eb 1e                	jmp    401845 <touch2+0x56>
  401827:	be 20 32 40 00       	mov    $0x403220,%esi
  40182c:	bf 01 00 00 00       	mov    $0x1,%edi
  401831:	b8 00 00 00 00       	mov    $0x0,%eax
  401836:	e8 c5 f5 ff ff       	callq  400e00 <__printf_chk@plt>
  40183b:	bf 02 00 00 00       	mov    $0x2,%edi
  401840:	e8 16 06 00 00       	callq  401e5b <fail>
  401845:	bf 00 00 00 00       	mov    $0x0,%edi
  40184a:	e8 01 f6 ff ff       	callq  400e50 <exit@plt>

000000000040184f <hexmatch>:
  40184f:	41 54                	push   %r12
  401851:	55                   	push   %rbp
  401852:	53                   	push   %rbx
  401853:	48 83 c4 80          	add    $0xffffffffffffff80,%rsp
  401857:	89 fd                	mov    %edi,%ebp
  401859:	48 89 f3             	mov    %rsi,%rbx
  40185c:	64 48 8b 04 25 28 00 	mov    %fs:0x28,%rax
  401863:	00 00 
  401865:	48 89 44 24 78       	mov    %rax,0x78(%rsp)
  40186a:	31 c0                	xor    %eax,%eax
  40186c:	e8 4f f5 ff ff       	callq  400dc0 <random@plt>
  401871:	48 89 c1             	mov    %rax,%rcx
  401874:	48 ba 0b d7 a3 70 3d 	movabs $0xa3d70a3d70a3d70b,%rdx
  40187b:	0a d7 a3 
  40187e:	48 f7 ea             	imul   %rdx
  401881:	48 01 ca             	add    %rcx,%rdx
  401884:	48 c1 fa 06          	sar    $0x6,%rdx
  401888:	48 89 c8             	mov    %rcx,%rax
  40188b:	48 c1 f8 3f          	sar    $0x3f,%rax
  40188f:	48 29 c2             	sub    %rax,%rdx
  401892:	48 8d 04 92          	lea    (%rdx,%rdx,4),%rax
  401896:	48 8d 14 80          	lea    (%rax,%rax,4),%rdx
  40189a:	48 8d 04 95 00 00 00 	lea    0x0(,%rdx,4),%rax
  4018a1:	00 
  4018a2:	48 29 c1             	sub    %rax,%rcx
  4018a5:	4c 8d 24 0c          	lea    (%rsp,%rcx,1),%r12
  4018a9:	41 89 e8             	mov    %ebp,%r8d
  4018ac:	b9 f3 31 40 00       	mov    $0x4031f3,%ecx
  4018b1:	48 c7 c2 ff ff ff ff 	mov    $0xffffffffffffffff,%rdx
  4018b8:	be 01 00 00 00       	mov    $0x1,%esi
  4018bd:	4c 89 e7             	mov    %r12,%rdi
  4018c0:	b8 00 00 00 00       	mov    $0x0,%eax
  4018c5:	e8 b6 f5 ff ff       	callq  400e80 <__sprintf_chk@plt>
  4018ca:	ba 09 00 00 00       	mov    $0x9,%edx
  4018cf:	4c 89 e6             	mov    %r12,%rsi
  4018d2:	48 89 df             	mov    %rbx,%rdi
  4018d5:	e8 d6 f3 ff ff       	callq  400cb0 <strncmp@plt>
  4018da:	85 c0                	test   %eax,%eax
  4018dc:	0f 94 c0             	sete   %al
  4018df:	48 8b 5c 24 78       	mov    0x78(%rsp),%rbx
  4018e4:	64 48 33 1c 25 28 00 	xor    %fs:0x28,%rbx
  4018eb:	00 00 
  4018ed:	74 05                	je     4018f4 <hexmatch+0xa5>
  4018ef:	e8 fc f3 ff ff       	callq  400cf0 <__stack_chk_fail@plt>
  4018f4:	0f b6 c0             	movzbl %al,%eax
  4018f7:	48 83 ec 80          	sub    $0xffffffffffffff80,%rsp
  4018fb:	5b                   	pop    %rbx
  4018fc:	5d                   	pop    %rbp
  4018fd:	41 5c                	pop    %r12
  4018ff:	c3                   	retq   

0000000000401900 <touch3>:
  401900:	53                   	push   %rbx
  401901:	48 89 fb             	mov    %rdi,%rbx
  401904:	c7 05 0e 3c 20 00 03 	movl   $0x3,0x203c0e(%rip)        # 60551c <vlevel>
  40190b:	00 00 00 
  40190e:	48 89 fe             	mov    %rdi,%rsi
  401911:	8b 3d 0d 3c 20 00    	mov    0x203c0d(%rip),%edi        # 605524 <cookie>
  401917:	e8 33 ff ff ff       	callq  40184f <hexmatch>
  40191c:	85 c0                	test   %eax,%eax
  40191e:	74 23                	je     401943 <touch3+0x43>
  401920:	48 89 da             	mov    %rbx,%rdx
  401923:	be 48 32 40 00       	mov    $0x403248,%esi
  401928:	bf 01 00 00 00       	mov    $0x1,%edi
  40192d:	b8 00 00 00 00       	mov    $0x0,%eax
  401932:	e8 c9 f4 ff ff       	callq  400e00 <__printf_chk@plt>
  401937:	bf 03 00 00 00       	mov    $0x3,%edi
  40193c:	e8 58 04 00 00       	callq  401d99 <validate>
  401941:	eb 21                	jmp    401964 <touch3+0x64>
  401943:	48 89 da             	mov    %rbx,%rdx
  401946:	be 70 32 40 00       	mov    $0x403270,%esi
  40194b:	bf 01 00 00 00       	mov    $0x1,%edi
  401950:	b8 00 00 00 00       	mov    $0x0,%eax
  401955:	e8 a6 f4 ff ff       	callq  400e00 <__printf_chk@plt>
  40195a:	bf 03 00 00 00       	mov    $0x3,%edi
  40195f:	e8 f7 04 00 00       	callq  401e5b <fail>
  401964:	bf 00 00 00 00       	mov    $0x0,%edi
  401969:	e8 e2 f4 ff ff       	callq  400e50 <exit@plt>

000000000040196e <test>:
  40196e:	48 83 ec 08          	sub    $0x8,%rsp
  401972:	b8 00 00 00 00       	mov    $0x0,%eax
  401977:	e8 31 fe ff ff       	callq  4017ad <getbuf>
  40197c:	89 c2                	mov    %eax,%edx
  40197e:	be 98 32 40 00       	mov    $0x403298,%esi
  401983:	bf 01 00 00 00       	mov    $0x1,%edi
  401988:	b8 00 00 00 00       	mov    $0x0,%eax
  40198d:	e8 6e f4 ff ff       	callq  400e00 <__printf_chk@plt>
  401992:	48 83 c4 08          	add    $0x8,%rsp
  401996:	c3                   	retq   

0000000000401997 <start_farm>:
  401997:	b8 01 00 00 00       	mov    $0x1,%eax
  40199c:	c3                   	retq   

000000000040199d <setval_211>:
  40199d:	c7 07 18 90 90 c3    	movl   $0xc3909018,(%rdi)
  4019a3:	c3                   	retq   

00000000004019a4 <getval_276>:
  4019a4:	b8 77 c7 0a 58       	mov    $0x580ac777,%eax
  4019a9:	c3                   	retq   

00000000004019aa <getval_360>:
  4019aa:	b8 48 89 c7 92       	mov    $0x92c78948,%eax
  4019af:	c3                   	retq   

00000000004019b0 <setval_253>:
  4019b0:	c7 07 48 89 c7 c3    	movl   $0xc3c78948,(%rdi)
  4019b6:	c3                   	retq   

00000000004019b7 <getval_232>:
  4019b7:	b8 aa 40 89 c7       	mov    $0xc78940aa,%eax
  4019bc:	c3                   	retq   

00000000004019bd <addval_240>:
  4019bd:	8d 87 79 50 c3 06    	lea    0x6c35079(%rdi),%eax
  4019c3:	c3                   	retq   

00000000004019c4 <addval_351>:
  4019c4:	8d 87 48 89 c7 c3    	lea    -0x3c3876b8(%rdi),%eax
  4019ca:	c3                   	retq   

00000000004019cb <setval_228>:
  4019cb:	c7 07 f4 dc 58 90    	movl   $0x9058dcf4,(%rdi)
  4019d1:	c3                   	retq   

00000000004019d2 <mid_farm>:
  4019d2:	b8 01 00 00 00       	mov    $0x1,%eax
  4019d7:	c3                   	retq   

00000000004019d8 <add_xy>:
  4019d8:	48 8d 04 37          	lea    (%rdi,%rsi,1),%rax
  4019dc:	c3                   	retq   

00000000004019dd <getval_299>:
  4019dd:	b8 48 89 e0 94       	mov    $0x94e08948,%eax
  4019e2:	c3                   	retq   

00000000004019e3 <getval_454>:
  4019e3:	b8 89 d1 08 c0       	mov    $0xc008d189,%eax
  4019e8:	c3                   	retq   

00000000004019e9 <getval_210>:
  4019e9:	b8 89 c2 00 db       	mov    $0xdb00c289,%eax
  4019ee:	c3                   	retq   

00000000004019ef <addval_165>:
  4019ef:	8d 87 89 ce c4 d2    	lea    -0x2d3b3177(%rdi),%eax
  4019f5:	c3                   	retq   

00000000004019f6 <setval_175>:
  4019f6:	c7 07 48 89 e0 92    	movl   $0x92e08948,(%rdi)
  4019fc:	c3                   	retq   

00000000004019fd <getval_332>:
  4019fd:	b8 08 89 e0 90       	mov    $0x90e08908,%eax
  401a02:	c3                   	retq   

0000000000401a03 <addval_493>:
  401a03:	8d 87 a8 cb 09 ce    	lea    -0x31f63458(%rdi),%eax
  401a09:	c3                   	retq   

0000000000401a0a <setval_444>:
  401a0a:	c7 07 d0 09 ce 90    	movl   $0x90ce09d0,(%rdi)
  401a10:	c3                   	retq   

0000000000401a11 <addval_440>:
  401a11:	8d 87 48 89 e0 c7    	lea    -0x381f76b8(%rdi),%eax
  401a17:	c3                   	retq   

0000000000401a18 <getval_237>:
  401a18:	b8 89 ce a4 d2       	mov    $0xd2a4ce89,%eax
  401a1d:	c3                   	retq   

0000000000401a1e <addval_168>:
  401a1e:	8d 87 f5 89 c2 94    	lea    -0x6b3d760b(%rdi),%eax
  401a24:	c3                   	retq   

0000000000401a25 <getval_186>:
  401a25:	b8 89 ce 60 c0       	mov    $0xc060ce89,%eax
  401a2a:	c3                   	retq   

0000000000401a2b <setval_196>:
  401a2b:	c7 07 89 c2 20 c0    	movl   $0xc020c289,(%rdi)
  401a31:	c3                   	retq   

0000000000401a32 <getval_443>:
  401a32:	b8 d9 89 d1 c7       	mov    $0xc7d189d9,%eax
  401a37:	c3                   	retq   

0000000000401a38 <addval_227>:
  401a38:	8d 87 a9 c2 90 90    	lea    -0x6f6f3d57(%rdi),%eax
  401a3e:	c3                   	retq   

0000000000401a3f <addval_281>:
  401a3f:	8d 87 88 ce 38 c0    	lea    -0x3fc73178(%rdi),%eax
  401a45:	c3                   	retq   

0000000000401a46 <addval_391>:
  401a46:	8d 87 89 d1 38 db    	lea    -0x24c72e77(%rdi),%eax
  401a4c:	c3                   	retq   

0000000000401a4d <addval_346>:
  401a4d:	8d 87 89 d1 60 d2    	lea    -0x2d9f2e77(%rdi),%eax
  401a53:	c3                   	retq   

0000000000401a54 <getval_442>:
  401a54:	b8 89 ce 90 90       	mov    $0x9090ce89,%eax
  401a59:	c3                   	retq   

0000000000401a5a <addval_333>:
  401a5a:	8d 87 48 89 e0 c7    	lea    -0x381f76b8(%rdi),%eax
  401a60:	c3                   	retq   

0000000000401a61 <getval_259>:
  401a61:	b8 89 c2 78 d2       	mov    $0xd278c289,%eax
  401a66:	c3                   	retq   

0000000000401a67 <addval_100>:
  401a67:	8d 87 89 c2 c2 f3    	lea    -0xc3d3d77(%rdi),%eax
  401a6d:	c3                   	retq   

0000000000401a6e <getval_412>:
  401a6e:	b8 6b bd 89 c2       	mov    $0xc289bd6b,%eax
  401a73:	c3                   	retq   

0000000000401a74 <addval_289>:
  401a74:	8d 87 89 ce 90 c3    	lea    -0x3c6f3177(%rdi),%eax
  401a7a:	c3                   	retq   

0000000000401a7b <addval_311>:
  401a7b:	8d 87 48 89 e0 c3    	lea    -0x3c1f76b8(%rdi),%eax
  401a81:	c3                   	retq   

0000000000401a82 <getval_128>:
  401a82:	b8 89 d1 28 c0       	mov    $0xc028d189,%eax
  401a87:	c3                   	retq   

0000000000401a88 <getval_248>:
  401a88:	b8 88 d1 90 90       	mov    $0x9090d188,%eax
  401a8d:	c3                   	retq   

0000000000401a8e <getval_451>:
  401a8e:	b8 48 89 e0 c3       	mov    $0xc3e08948,%eax
  401a93:	c3                   	retq   

0000000000401a94 <getval_380>:
  401a94:	b8 e7 89 d1 c1       	mov    $0xc1d189e7,%eax
  401a99:	c3                   	retq   

0000000000401a9a <getval_394>:
  401a9a:	b8 89 d1 30 c9       	mov    $0xc930d189,%eax
  401a9f:	c3                   	retq   

0000000000401aa0 <setval_244>:
  401aa0:	c7 07 7f 89 c2 94    	movl   $0x94c2897f,(%rdi)
  401aa6:	c3                   	retq   

0000000000401aa7 <addval_452>:
  401aa7:	8d 87 58 89 e0 90    	lea    -0x6f1f76a8(%rdi),%eax
  401aad:	c3                   	retq   

0000000000401aae <end_farm>:
  401aae:	b8 01 00 00 00       	mov    $0x1,%eax
  401ab3:	c3                   	retq   

0000000000401ab4 <save_char>:
  401ab4:	8b 05 8a 46 20 00    	mov    0x20468a(%rip),%eax        # 606144 <gets_cnt>
  401aba:	3d ff 03 00 00       	cmp    $0x3ff,%eax
  401abf:	7f 49                	jg     401b0a <save_char+0x56>
  401ac1:	8d 14 40             	lea    (%rax,%rax,2),%edx
  401ac4:	89 f9                	mov    %edi,%ecx
  401ac6:	c0 e9 04             	shr    $0x4,%cl
  401ac9:	83 e1 0f             	and    $0xf,%ecx
  401acc:	0f b6 b1 c0 35 40 00 	movzbl 0x4035c0(%rcx),%esi
  401ad3:	48 63 ca             	movslq %edx,%rcx
  401ad6:	40 88 b1 40 55 60 00 	mov    %sil,0x605540(%rcx)
  401add:	8d 4a 01             	lea    0x1(%rdx),%ecx
  401ae0:	83 e7 0f             	and    $0xf,%edi
  401ae3:	0f b6 b7 c0 35 40 00 	movzbl 0x4035c0(%rdi),%esi
  401aea:	48 63 c9             	movslq %ecx,%rcx
  401aed:	40 88 b1 40 55 60 00 	mov    %sil,0x605540(%rcx)
  401af4:	83 c2 02             	add    $0x2,%edx
  401af7:	48 63 d2             	movslq %edx,%rdx
  401afa:	c6 82 40 55 60 00 20 	movb   $0x20,0x605540(%rdx)
  401b01:	83 c0 01             	add    $0x1,%eax
  401b04:	89 05 3a 46 20 00    	mov    %eax,0x20463a(%rip)        # 606144 <gets_cnt>
  401b0a:	f3 c3                	repz retq 

0000000000401b0c <save_term>:
  401b0c:	8b 05 32 46 20 00    	mov    0x204632(%rip),%eax        # 606144 <gets_cnt>
  401b12:	8d 04 40             	lea    (%rax,%rax,2),%eax
  401b15:	48 98                	cltq   
  401b17:	c6 80 40 55 60 00 00 	movb   $0x0,0x605540(%rax)
  401b1e:	c3                   	retq   

0000000000401b1f <check_fail>:
  401b1f:	48 83 ec 08          	sub    $0x8,%rsp
  401b23:	0f be 15 1e 46 20 00 	movsbl 0x20461e(%rip),%edx        # 606148 <target_prefix>
  401b2a:	41 b8 40 55 60 00    	mov    $0x605540,%r8d
  401b30:	8b 0d e2 39 20 00    	mov    0x2039e2(%rip),%ecx        # 605518 <check_level>
  401b36:	be bb 32 40 00       	mov    $0x4032bb,%esi
  401b3b:	bf 01 00 00 00       	mov    $0x1,%edi
  401b40:	b8 00 00 00 00       	mov    $0x0,%eax
  401b45:	e8 b6 f2 ff ff       	callq  400e00 <__printf_chk@plt>
  401b4a:	bf 01 00 00 00       	mov    $0x1,%edi
  401b4f:	e8 fc f2 ff ff       	callq  400e50 <exit@plt>

0000000000401b54 <Gets>:
  401b54:	41 54                	push   %r12
  401b56:	55                   	push   %rbp
  401b57:	53                   	push   %rbx
  401b58:	49 89 fc             	mov    %rdi,%r12
  401b5b:	c7 05 df 45 20 00 00 	movl   $0x0,0x2045df(%rip)        # 606144 <gets_cnt>
  401b62:	00 00 00 
  401b65:	48 89 fb             	mov    %rdi,%rbx
  401b68:	eb 11                	jmp    401b7b <Gets+0x27>
  401b6a:	48 8d 6b 01          	lea    0x1(%rbx),%rbp
  401b6e:	88 03                	mov    %al,(%rbx)
  401b70:	0f b6 f8             	movzbl %al,%edi
  401b73:	e8 3c ff ff ff       	callq  401ab4 <save_char>
  401b78:	48 89 eb             	mov    %rbp,%rbx
  401b7b:	48 8b 3d 8e 39 20 00 	mov    0x20398e(%rip),%rdi        # 605510 <infile>
  401b82:	e8 49 f2 ff ff       	callq  400dd0 <_IO_getc@plt>
  401b87:	83 f8 ff             	cmp    $0xffffffff,%eax
  401b8a:	74 05                	je     401b91 <Gets+0x3d>
  401b8c:	83 f8 0a             	cmp    $0xa,%eax
  401b8f:	75 d9                	jne    401b6a <Gets+0x16>
  401b91:	c6 03 00             	movb   $0x0,(%rbx)
  401b94:	b8 00 00 00 00       	mov    $0x0,%eax
  401b99:	e8 6e ff ff ff       	callq  401b0c <save_term>
  401b9e:	4c 89 e0             	mov    %r12,%rax
  401ba1:	5b                   	pop    %rbx
  401ba2:	5d                   	pop    %rbp
  401ba3:	41 5c                	pop    %r12
  401ba5:	c3                   	retq   

0000000000401ba6 <notify_server>:
  401ba6:	53                   	push   %rbx
  401ba7:	48 81 ec 10 40 00 00 	sub    $0x4010,%rsp
  401bae:	64 48 8b 04 25 28 00 	mov    %fs:0x28,%rax
  401bb5:	00 00 
  401bb7:	48 89 84 24 08 40 00 	mov    %rax,0x4008(%rsp)
  401bbe:	00 
  401bbf:	31 c0                	xor    %eax,%eax
  401bc1:	83 3d 60 39 20 00 00 	cmpl   $0x0,0x203960(%rip)        # 605528 <is_checker>
  401bc8:	0f 85 aa 01 00 00    	jne    401d78 <notify_server+0x1d2>
  401bce:	89 fb                	mov    %edi,%ebx
  401bd0:	8b 05 6e 45 20 00    	mov    0x20456e(%rip),%eax        # 606144 <gets_cnt>
  401bd6:	83 c0 64             	add    $0x64,%eax
  401bd9:	3d 00 20 00 00       	cmp    $0x2000,%eax
  401bde:	7e 1e                	jle    401bfe <notify_server+0x58>
  401be0:	be f0 33 40 00       	mov    $0x4033f0,%esi
  401be5:	bf 01 00 00 00       	mov    $0x1,%edi
  401bea:	b8 00 00 00 00       	mov    $0x0,%eax
  401bef:	e8 0c f2 ff ff       	callq  400e00 <__printf_chk@plt>
  401bf4:	bf 01 00 00 00       	mov    $0x1,%edi
  401bf9:	e8 52 f2 ff ff       	callq  400e50 <exit@plt>
  401bfe:	0f be 05 43 45 20 00 	movsbl 0x204543(%rip),%eax        # 606148 <target_prefix>
  401c05:	83 3d 9c 38 20 00 00 	cmpl   $0x0,0x20389c(%rip)        # 6054a8 <notify>
  401c0c:	74 08                	je     401c16 <notify_server+0x70>
  401c0e:	8b 15 0c 39 20 00    	mov    0x20390c(%rip),%edx        # 605520 <authkey>
  401c14:	eb 05                	jmp    401c1b <notify_server+0x75>
  401c16:	ba ff ff ff ff       	mov    $0xffffffff,%edx
  401c1b:	85 db                	test   %ebx,%ebx
  401c1d:	74 08                	je     401c27 <notify_server+0x81>
  401c1f:	41 b9 d1 32 40 00    	mov    $0x4032d1,%r9d
  401c25:	eb 06                	jmp    401c2d <notify_server+0x87>
  401c27:	41 b9 d6 32 40 00    	mov    $0x4032d6,%r9d
  401c2d:	68 40 55 60 00       	pushq  $0x605540
  401c32:	56                   	push   %rsi
  401c33:	50                   	push   %rax
  401c34:	52                   	push   %rdx
  401c35:	44 8b 05 2c 35 20 00 	mov    0x20352c(%rip),%r8d        # 605168 <target_id>
  401c3c:	b9 db 32 40 00       	mov    $0x4032db,%ecx
  401c41:	ba 00 20 00 00       	mov    $0x2000,%edx
  401c46:	be 01 00 00 00       	mov    $0x1,%esi
  401c4b:	48 8d 7c 24 20       	lea    0x20(%rsp),%rdi
  401c50:	b8 00 00 00 00       	mov    $0x0,%eax
  401c55:	e8 26 f2 ff ff       	callq  400e80 <__sprintf_chk@plt>
  401c5a:	48 83 c4 20          	add    $0x20,%rsp
  401c5e:	83 3d 43 38 20 00 00 	cmpl   $0x0,0x203843(%rip)        # 6054a8 <notify>
  401c65:	0f 84 81 00 00 00    	je     401cec <notify_server+0x146>
  401c6b:	85 db                	test   %ebx,%ebx
  401c6d:	74 6e                	je     401cdd <notify_server+0x137>
  401c6f:	4c 8d 8c 24 00 20 00 	lea    0x2000(%rsp),%r9
  401c76:	00 
  401c77:	41 b8 00 00 00 00    	mov    $0x0,%r8d
  401c7d:	48 89 e1             	mov    %rsp,%rcx
  401c80:	48 8b 15 e9 34 20 00 	mov    0x2034e9(%rip),%rdx        # 605170 <lab>
  401c87:	48 8b 35 ea 34 20 00 	mov    0x2034ea(%rip),%rsi        # 605178 <course>
  401c8e:	48 8b 3d cb 34 20 00 	mov    0x2034cb(%rip),%rdi        # 605160 <user_id>
  401c95:	e8 ef 10 00 00       	callq  402d89 <driver_post>
  401c9a:	85 c0                	test   %eax,%eax
  401c9c:	79 26                	jns    401cc4 <notify_server+0x11e>
  401c9e:	48 8d 94 24 00 20 00 	lea    0x2000(%rsp),%rdx
  401ca5:	00 
  401ca6:	be f7 32 40 00       	mov    $0x4032f7,%esi
  401cab:	bf 01 00 00 00       	mov    $0x1,%edi
  401cb0:	b8 00 00 00 00       	mov    $0x0,%eax
  401cb5:	e8 46 f1 ff ff       	callq  400e00 <__printf_chk@plt>
  401cba:	bf 01 00 00 00       	mov    $0x1,%edi
  401cbf:	e8 8c f1 ff ff       	callq  400e50 <exit@plt>
  401cc4:	bf 20 34 40 00       	mov    $0x403420,%edi
  401cc9:	e8 02 f0 ff ff       	callq  400cd0 <puts@plt>
  401cce:	bf 03 33 40 00       	mov    $0x403303,%edi
  401cd3:	e8 f8 ef ff ff       	callq  400cd0 <puts@plt>
  401cd8:	e9 9b 00 00 00       	jmpq   401d78 <notify_server+0x1d2>
  401cdd:	bf 0d 33 40 00       	mov    $0x40330d,%edi
  401ce2:	e8 e9 ef ff ff       	callq  400cd0 <puts@plt>
  401ce7:	e9 8c 00 00 00       	jmpq   401d78 <notify_server+0x1d2>
  401cec:	85 db                	test   %ebx,%ebx
  401cee:	74 07                	je     401cf7 <notify_server+0x151>
  401cf0:	ba d1 32 40 00       	mov    $0x4032d1,%edx
  401cf5:	eb 05                	jmp    401cfc <notify_server+0x156>
  401cf7:	ba d6 32 40 00       	mov    $0x4032d6,%edx
  401cfc:	be 58 34 40 00       	mov    $0x403458,%esi
  401d01:	bf 01 00 00 00       	mov    $0x1,%edi
  401d06:	b8 00 00 00 00       	mov    $0x0,%eax
  401d0b:	e8 f0 f0 ff ff       	callq  400e00 <__printf_chk@plt>
  401d10:	48 8b 15 49 34 20 00 	mov    0x203449(%rip),%rdx        # 605160 <user_id>
  401d17:	be 14 33 40 00       	mov    $0x403314,%esi
  401d1c:	bf 01 00 00 00       	mov    $0x1,%edi
  401d21:	b8 00 00 00 00       	mov    $0x0,%eax
  401d26:	e8 d5 f0 ff ff       	callq  400e00 <__printf_chk@plt>
  401d2b:	48 8b 15 46 34 20 00 	mov    0x203446(%rip),%rdx        # 605178 <course>
  401d32:	be 21 33 40 00       	mov    $0x403321,%esi
  401d37:	bf 01 00 00 00       	mov    $0x1,%edi
  401d3c:	b8 00 00 00 00       	mov    $0x0,%eax
  401d41:	e8 ba f0 ff ff       	callq  400e00 <__printf_chk@plt>
  401d46:	48 8b 15 23 34 20 00 	mov    0x203423(%rip),%rdx        # 605170 <lab>
  401d4d:	be 2d 33 40 00       	mov    $0x40332d,%esi
  401d52:	bf 01 00 00 00       	mov    $0x1,%edi
  401d57:	b8 00 00 00 00       	mov    $0x0,%eax
  401d5c:	e8 9f f0 ff ff       	callq  400e00 <__printf_chk@plt>
  401d61:	48 89 e2             	mov    %rsp,%rdx
  401d64:	be 36 33 40 00       	mov    $0x403336,%esi
  401d69:	bf 01 00 00 00       	mov    $0x1,%edi
  401d6e:	b8 00 00 00 00       	mov    $0x0,%eax
  401d73:	e8 88 f0 ff ff       	callq  400e00 <__printf_chk@plt>
  401d78:	48 8b 84 24 08 40 00 	mov    0x4008(%rsp),%rax
  401d7f:	00 
  401d80:	64 48 33 04 25 28 00 	xor    %fs:0x28,%rax
  401d87:	00 00 
  401d89:	74 05                	je     401d90 <notify_server+0x1ea>
  401d8b:	e8 60 ef ff ff       	callq  400cf0 <__stack_chk_fail@plt>
  401d90:	48 81 c4 10 40 00 00 	add    $0x4010,%rsp
  401d97:	5b                   	pop    %rbx
  401d98:	c3                   	retq   

0000000000401d99 <validate>:
  401d99:	53                   	push   %rbx
  401d9a:	89 fb                	mov    %edi,%ebx
  401d9c:	83 3d 85 37 20 00 00 	cmpl   $0x0,0x203785(%rip)        # 605528 <is_checker>
  401da3:	74 6b                	je     401e10 <validate+0x77>
  401da5:	39 3d 71 37 20 00    	cmp    %edi,0x203771(%rip)        # 60551c <vlevel>
  401dab:	74 14                	je     401dc1 <validate+0x28>
  401dad:	bf 42 33 40 00       	mov    $0x403342,%edi
  401db2:	e8 19 ef ff ff       	callq  400cd0 <puts@plt>
  401db7:	b8 00 00 00 00       	mov    $0x0,%eax
  401dbc:	e8 5e fd ff ff       	callq  401b1f <check_fail>
  401dc1:	8b 15 51 37 20 00    	mov    0x203751(%rip),%edx        # 605518 <check_level>
  401dc7:	39 d7                	cmp    %edx,%edi
  401dc9:	74 20                	je     401deb <validate+0x52>
  401dcb:	89 f9                	mov    %edi,%ecx
  401dcd:	be 80 34 40 00       	mov    $0x403480,%esi
  401dd2:	bf 01 00 00 00       	mov    $0x1,%edi
  401dd7:	b8 00 00 00 00       	mov    $0x0,%eax
  401ddc:	e8 1f f0 ff ff       	callq  400e00 <__printf_chk@plt>
  401de1:	b8 00 00 00 00       	mov    $0x0,%eax
  401de6:	e8 34 fd ff ff       	callq  401b1f <check_fail>
  401deb:	0f be 15 56 43 20 00 	movsbl 0x204356(%rip),%edx        # 606148 <target_prefix>
  401df2:	41 b8 40 55 60 00    	mov    $0x605540,%r8d
  401df8:	89 f9                	mov    %edi,%ecx
  401dfa:	be 60 33 40 00       	mov    $0x403360,%esi
  401dff:	bf 01 00 00 00       	mov    $0x1,%edi
  401e04:	b8 00 00 00 00       	mov    $0x0,%eax
  401e09:	e8 f2 ef ff ff       	callq  400e00 <__printf_chk@plt>
  401e0e:	eb 49                	jmp    401e59 <validate+0xc0>
  401e10:	3b 3d 06 37 20 00    	cmp    0x203706(%rip),%edi        # 60551c <vlevel>
  401e16:	74 18                	je     401e30 <validate+0x97>
  401e18:	bf 42 33 40 00       	mov    $0x403342,%edi
  401e1d:	e8 ae ee ff ff       	callq  400cd0 <puts@plt>
  401e22:	89 de                	mov    %ebx,%esi
  401e24:	bf 00 00 00 00       	mov    $0x0,%edi
  401e29:	e8 78 fd ff ff       	callq  401ba6 <notify_server>
  401e2e:	eb 29                	jmp    401e59 <validate+0xc0>
  401e30:	0f be 0d 11 43 20 00 	movsbl 0x204311(%rip),%ecx        # 606148 <target_prefix>
  401e37:	89 fa                	mov    %edi,%edx
  401e39:	be a8 34 40 00       	mov    $0x4034a8,%esi
  401e3e:	bf 01 00 00 00       	mov    $0x1,%edi
  401e43:	b8 00 00 00 00       	mov    $0x0,%eax
  401e48:	e8 b3 ef ff ff       	callq  400e00 <__printf_chk@plt>
  401e4d:	89 de                	mov    %ebx,%esi
  401e4f:	bf 01 00 00 00       	mov    $0x1,%edi
  401e54:	e8 4d fd ff ff       	callq  401ba6 <notify_server>
  401e59:	5b                   	pop    %rbx
  401e5a:	c3                   	retq   

0000000000401e5b <fail>:
  401e5b:	48 83 ec 08          	sub    $0x8,%rsp
  401e5f:	83 3d c2 36 20 00 00 	cmpl   $0x0,0x2036c2(%rip)        # 605528 <is_checker>
  401e66:	74 0a                	je     401e72 <fail+0x17>
  401e68:	b8 00 00 00 00       	mov    $0x0,%eax
  401e6d:	e8 ad fc ff ff       	callq  401b1f <check_fail>
  401e72:	89 fe                	mov    %edi,%esi
  401e74:	bf 00 00 00 00       	mov    $0x0,%edi
  401e79:	e8 28 fd ff ff       	callq  401ba6 <notify_server>
  401e7e:	48 83 c4 08          	add    $0x8,%rsp
  401e82:	c3                   	retq   

0000000000401e83 <bushandler>:
  401e83:	48 83 ec 08          	sub    $0x8,%rsp
  401e87:	83 3d 9a 36 20 00 00 	cmpl   $0x0,0x20369a(%rip)        # 605528 <is_checker>
  401e8e:	74 14                	je     401ea4 <bushandler+0x21>
  401e90:	bf 75 33 40 00       	mov    $0x403375,%edi
  401e95:	e8 36 ee ff ff       	callq  400cd0 <puts@plt>
  401e9a:	b8 00 00 00 00       	mov    $0x0,%eax
  401e9f:	e8 7b fc ff ff       	callq  401b1f <check_fail>
  401ea4:	bf e0 34 40 00       	mov    $0x4034e0,%edi
  401ea9:	e8 22 ee ff ff       	callq  400cd0 <puts@plt>
  401eae:	bf 7f 33 40 00       	mov    $0x40337f,%edi
  401eb3:	e8 18 ee ff ff       	callq  400cd0 <puts@plt>
  401eb8:	be 00 00 00 00       	mov    $0x0,%esi
  401ebd:	bf 00 00 00 00       	mov    $0x0,%edi
  401ec2:	e8 df fc ff ff       	callq  401ba6 <notify_server>
  401ec7:	bf 01 00 00 00       	mov    $0x1,%edi
  401ecc:	e8 7f ef ff ff       	callq  400e50 <exit@plt>

0000000000401ed1 <seghandler>:
  401ed1:	48 83 ec 08          	sub    $0x8,%rsp
  401ed5:	83 3d 4c 36 20 00 00 	cmpl   $0x0,0x20364c(%rip)        # 605528 <is_checker>
  401edc:	74 14                	je     401ef2 <seghandler+0x21>
  401ede:	bf 95 33 40 00       	mov    $0x403395,%edi
  401ee3:	e8 e8 ed ff ff       	callq  400cd0 <puts@plt>
  401ee8:	b8 00 00 00 00       	mov    $0x0,%eax
  401eed:	e8 2d fc ff ff       	callq  401b1f <check_fail>
  401ef2:	bf 00 35 40 00       	mov    $0x403500,%edi
  401ef7:	e8 d4 ed ff ff       	callq  400cd0 <puts@plt>
  401efc:	bf 7f 33 40 00       	mov    $0x40337f,%edi
  401f01:	e8 ca ed ff ff       	callq  400cd0 <puts@plt>
  401f06:	be 00 00 00 00       	mov    $0x0,%esi
  401f0b:	bf 00 00 00 00       	mov    $0x0,%edi
  401f10:	e8 91 fc ff ff       	callq  401ba6 <notify_server>
  401f15:	bf 01 00 00 00       	mov    $0x1,%edi
  401f1a:	e8 31 ef ff ff       	callq  400e50 <exit@plt>

0000000000401f1f <illegalhandler>:
  401f1f:	48 83 ec 08          	sub    $0x8,%rsp
  401f23:	83 3d fe 35 20 00 00 	cmpl   $0x0,0x2035fe(%rip)        # 605528 <is_checker>
  401f2a:	74 14                	je     401f40 <illegalhandler+0x21>
  401f2c:	bf a8 33 40 00       	mov    $0x4033a8,%edi
  401f31:	e8 9a ed ff ff       	callq  400cd0 <puts@plt>
  401f36:	b8 00 00 00 00       	mov    $0x0,%eax
  401f3b:	e8 df fb ff ff       	callq  401b1f <check_fail>
  401f40:	bf 28 35 40 00       	mov    $0x403528,%edi
  401f45:	e8 86 ed ff ff       	callq  400cd0 <puts@plt>
  401f4a:	bf 7f 33 40 00       	mov    $0x40337f,%edi
  401f4f:	e8 7c ed ff ff       	callq  400cd0 <puts@plt>
  401f54:	be 00 00 00 00       	mov    $0x0,%esi
  401f59:	bf 00 00 00 00       	mov    $0x0,%edi
  401f5e:	e8 43 fc ff ff       	callq  401ba6 <notify_server>
  401f63:	bf 01 00 00 00       	mov    $0x1,%edi
  401f68:	e8 e3 ee ff ff       	callq  400e50 <exit@plt>

0000000000401f6d <sigalrmhandler>:
  401f6d:	48 83 ec 08          	sub    $0x8,%rsp
  401f71:	83 3d b0 35 20 00 00 	cmpl   $0x0,0x2035b0(%rip)        # 605528 <is_checker>
  401f78:	74 14                	je     401f8e <sigalrmhandler+0x21>
  401f7a:	bf bc 33 40 00       	mov    $0x4033bc,%edi
  401f7f:	e8 4c ed ff ff       	callq  400cd0 <puts@plt>
  401f84:	b8 00 00 00 00       	mov    $0x0,%eax
  401f89:	e8 91 fb ff ff       	callq  401b1f <check_fail>
  401f8e:	ba 05 00 00 00       	mov    $0x5,%edx
  401f93:	be 58 35 40 00       	mov    $0x403558,%esi
  401f98:	bf 01 00 00 00       	mov    $0x1,%edi
  401f9d:	b8 00 00 00 00       	mov    $0x0,%eax
  401fa2:	e8 59 ee ff ff       	callq  400e00 <__printf_chk@plt>
  401fa7:	be 00 00 00 00       	mov    $0x0,%esi
  401fac:	bf 00 00 00 00       	mov    $0x0,%edi
  401fb1:	e8 f0 fb ff ff       	callq  401ba6 <notify_server>
  401fb6:	bf 01 00 00 00       	mov    $0x1,%edi
  401fbb:	e8 90 ee ff ff       	callq  400e50 <exit@plt>

0000000000401fc0 <launch>:
  401fc0:	55                   	push   %rbp
  401fc1:	48 89 e5             	mov    %rsp,%rbp
  401fc4:	48 83 ec 10          	sub    $0x10,%rsp
  401fc8:	48 89 fa             	mov    %rdi,%rdx
  401fcb:	64 48 8b 04 25 28 00 	mov    %fs:0x28,%rax
  401fd2:	00 00 
  401fd4:	48 89 45 f8          	mov    %rax,-0x8(%rbp)
  401fd8:	31 c0                	xor    %eax,%eax
  401fda:	48 8d 47 1e          	lea    0x1e(%rdi),%rax
  401fde:	48 83 e0 f0          	and    $0xfffffffffffffff0,%rax
  401fe2:	48 29 c4             	sub    %rax,%rsp
  401fe5:	48 8d 7c 24 0f       	lea    0xf(%rsp),%rdi
  401fea:	48 83 e7 f0          	and    $0xfffffffffffffff0,%rdi
  401fee:	be f4 00 00 00       	mov    $0xf4,%esi
  401ff3:	e8 18 ed ff ff       	callq  400d10 <memset@plt>
  401ff8:	48 8b 05 c1 34 20 00 	mov    0x2034c1(%rip),%rax        # 6054c0 <stdin@@GLIBC_2.2.5>
  401fff:	48 39 05 0a 35 20 00 	cmp    %rax,0x20350a(%rip)        # 605510 <infile>
  402006:	75 14                	jne    40201c <launch+0x5c>
  402008:	be c4 33 40 00       	mov    $0x4033c4,%esi
  40200d:	bf 01 00 00 00       	mov    $0x1,%edi
  402012:	b8 00 00 00 00       	mov    $0x0,%eax
  402017:	e8 e4 ed ff ff       	callq  400e00 <__printf_chk@plt>
  40201c:	c7 05 f6 34 20 00 00 	movl   $0x0,0x2034f6(%rip)        # 60551c <vlevel>
  402023:	00 00 00 
  402026:	b8 00 00 00 00       	mov    $0x0,%eax
  40202b:	e8 3e f9 ff ff       	callq  40196e <test>
  402030:	83 3d f1 34 20 00 00 	cmpl   $0x0,0x2034f1(%rip)        # 605528 <is_checker>
  402037:	74 14                	je     40204d <launch+0x8d>
  402039:	bf d1 33 40 00       	mov    $0x4033d1,%edi
  40203e:	e8 8d ec ff ff       	callq  400cd0 <puts@plt>
  402043:	b8 00 00 00 00       	mov    $0x0,%eax
  402048:	e8 d2 fa ff ff       	callq  401b1f <check_fail>
  40204d:	bf dc 33 40 00       	mov    $0x4033dc,%edi
  402052:	e8 79 ec ff ff       	callq  400cd0 <puts@plt>
  402057:	48 8b 45 f8          	mov    -0x8(%rbp),%rax
  40205b:	64 48 33 04 25 28 00 	xor    %fs:0x28,%rax
  402062:	00 00 
  402064:	74 05                	je     40206b <launch+0xab>
  402066:	e8 85 ec ff ff       	callq  400cf0 <__stack_chk_fail@plt>
  40206b:	c9                   	leaveq 
  40206c:	c3                   	retq   

000000000040206d <stable_launch>:
  40206d:	53                   	push   %rbx
  40206e:	48 89 3d 93 34 20 00 	mov    %rdi,0x203493(%rip)        # 605508 <global_offset>
  402075:	41 b9 00 00 00 00    	mov    $0x0,%r9d
  40207b:	41 b8 00 00 00 00    	mov    $0x0,%r8d
  402081:	b9 32 01 00 00       	mov    $0x132,%ecx
  402086:	ba 07 00 00 00       	mov    $0x7,%edx
  40208b:	be 00 00 10 00       	mov    $0x100000,%esi
  402090:	bf 00 60 58 55       	mov    $0x55586000,%edi
  402095:	e8 66 ec ff ff       	callq  400d00 <mmap@plt>
  40209a:	48 89 c3             	mov    %rax,%rbx
  40209d:	48 3d 00 60 58 55    	cmp    $0x55586000,%rax
  4020a3:	74 37                	je     4020dc <stable_launch+0x6f>
  4020a5:	be 00 00 10 00       	mov    $0x100000,%esi
  4020aa:	48 89 c7             	mov    %rax,%rdi
  4020ad:	e8 3e ed ff ff       	callq  400df0 <munmap@plt>
  4020b2:	b9 00 60 58 55       	mov    $0x55586000,%ecx
  4020b7:	ba 90 35 40 00       	mov    $0x403590,%edx
  4020bc:	be 01 00 00 00       	mov    $0x1,%esi
  4020c1:	48 8b 3d 18 34 20 00 	mov    0x203418(%rip),%rdi        # 6054e0 <stderr@@GLIBC_2.2.5>
  4020c8:	b8 00 00 00 00       	mov    $0x0,%eax
  4020cd:	e8 9e ed ff ff       	callq  400e70 <__fprintf_chk@plt>
  4020d2:	bf 01 00 00 00       	mov    $0x1,%edi
  4020d7:	e8 74 ed ff ff       	callq  400e50 <exit@plt>
  4020dc:	48 8d 90 f8 ff 0f 00 	lea    0xffff8(%rax),%rdx
  4020e3:	48 89 15 66 40 20 00 	mov    %rdx,0x204066(%rip)        # 606150 <stack_top>
  4020ea:	48 89 e0             	mov    %rsp,%rax
  4020ed:	48 89 d4             	mov    %rdx,%rsp
  4020f0:	48 89 c2             	mov    %rax,%rdx
  4020f3:	48 89 15 06 34 20 00 	mov    %rdx,0x203406(%rip)        # 605500 <global_save_stack>
  4020fa:	48 8b 3d 07 34 20 00 	mov    0x203407(%rip),%rdi        # 605508 <global_offset>
  402101:	e8 ba fe ff ff       	callq  401fc0 <launch>
  402106:	48 8b 05 f3 33 20 00 	mov    0x2033f3(%rip),%rax        # 605500 <global_save_stack>
  40210d:	48 89 c4             	mov    %rax,%rsp
  402110:	be 00 00 10 00       	mov    $0x100000,%esi
  402115:	48 89 df             	mov    %rbx,%rdi
  402118:	e8 d3 ec ff ff       	callq  400df0 <munmap@plt>
  40211d:	5b                   	pop    %rbx
  40211e:	c3                   	retq   

000000000040211f <rio_readinitb>:
  40211f:	89 37                	mov    %esi,(%rdi)
  402121:	c7 47 04 00 00 00 00 	movl   $0x0,0x4(%rdi)
  402128:	48 8d 47 10          	lea    0x10(%rdi),%rax
  40212c:	48 89 47 08          	mov    %rax,0x8(%rdi)
  402130:	c3                   	retq   

0000000000402131 <sigalrm_handler>:
  402131:	48 83 ec 08          	sub    $0x8,%rsp
  402135:	b9 00 00 00 00       	mov    $0x0,%ecx
  40213a:	ba d0 35 40 00       	mov    $0x4035d0,%edx
  40213f:	be 01 00 00 00       	mov    $0x1,%esi
  402144:	48 8b 3d 95 33 20 00 	mov    0x203395(%rip),%rdi        # 6054e0 <stderr@@GLIBC_2.2.5>
  40214b:	b8 00 00 00 00       	mov    $0x0,%eax
  402150:	e8 1b ed ff ff       	callq  400e70 <__fprintf_chk@plt>
  402155:	bf 01 00 00 00       	mov    $0x1,%edi
  40215a:	e8 f1 ec ff ff       	callq  400e50 <exit@plt>

000000000040215f <rio_writen>:
  40215f:	41 55                	push   %r13
  402161:	41 54                	push   %r12
  402163:	55                   	push   %rbp
  402164:	53                   	push   %rbx
  402165:	48 83 ec 08          	sub    $0x8,%rsp
  402169:	41 89 fc             	mov    %edi,%r12d
  40216c:	48 89 f5             	mov    %rsi,%rbp
  40216f:	49 89 d5             	mov    %rdx,%r13
  402172:	48 89 d3             	mov    %rdx,%rbx
  402175:	eb 28                	jmp    40219f <rio_writen+0x40>
  402177:	48 89 da             	mov    %rbx,%rdx
  40217a:	48 89 ee             	mov    %rbp,%rsi
  40217d:	44 89 e7             	mov    %r12d,%edi
  402180:	e8 5b eb ff ff       	callq  400ce0 <write@plt>
  402185:	48 85 c0             	test   %rax,%rax
  402188:	7f 0f                	jg     402199 <rio_writen+0x3a>
  40218a:	e8 01 eb ff ff       	callq  400c90 <__errno_location@plt>
  40218f:	83 38 04             	cmpl   $0x4,(%rax)
  402192:	75 15                	jne    4021a9 <rio_writen+0x4a>
  402194:	b8 00 00 00 00       	mov    $0x0,%eax
  402199:	48 29 c3             	sub    %rax,%rbx
  40219c:	48 01 c5             	add    %rax,%rbp
  40219f:	48 85 db             	test   %rbx,%rbx
  4021a2:	75 d3                	jne    402177 <rio_writen+0x18>
  4021a4:	4c 89 e8             	mov    %r13,%rax
  4021a7:	eb 07                	jmp    4021b0 <rio_writen+0x51>
  4021a9:	48 c7 c0 ff ff ff ff 	mov    $0xffffffffffffffff,%rax
  4021b0:	48 83 c4 08          	add    $0x8,%rsp
  4021b4:	5b                   	pop    %rbx
  4021b5:	5d                   	pop    %rbp
  4021b6:	41 5c                	pop    %r12
  4021b8:	41 5d                	pop    %r13
  4021ba:	c3                   	retq   

00000000004021bb <rio_read>:
  4021bb:	41 55                	push   %r13
  4021bd:	41 54                	push   %r12
  4021bf:	55                   	push   %rbp
  4021c0:	53                   	push   %rbx
  4021c1:	48 83 ec 08          	sub    $0x8,%rsp
  4021c5:	48 89 fb             	mov    %rdi,%rbx
  4021c8:	49 89 f5             	mov    %rsi,%r13
  4021cb:	49 89 d4             	mov    %rdx,%r12
  4021ce:	eb 2e                	jmp    4021fe <rio_read+0x43>
  4021d0:	48 8d 6b 10          	lea    0x10(%rbx),%rbp
  4021d4:	8b 3b                	mov    (%rbx),%edi
  4021d6:	ba 00 20 00 00       	mov    $0x2000,%edx
  4021db:	48 89 ee             	mov    %rbp,%rsi
  4021de:	e8 5d eb ff ff       	callq  400d40 <read@plt>
  4021e3:	89 43 04             	mov    %eax,0x4(%rbx)
  4021e6:	85 c0                	test   %eax,%eax
  4021e8:	79 0c                	jns    4021f6 <rio_read+0x3b>
  4021ea:	e8 a1 ea ff ff       	callq  400c90 <__errno_location@plt>
  4021ef:	83 38 04             	cmpl   $0x4,(%rax)
  4021f2:	74 0a                	je     4021fe <rio_read+0x43>
  4021f4:	eb 37                	jmp    40222d <rio_read+0x72>
  4021f6:	85 c0                	test   %eax,%eax
  4021f8:	74 3c                	je     402236 <rio_read+0x7b>
  4021fa:	48 89 6b 08          	mov    %rbp,0x8(%rbx)
  4021fe:	8b 6b 04             	mov    0x4(%rbx),%ebp
  402201:	85 ed                	test   %ebp,%ebp
  402203:	7e cb                	jle    4021d0 <rio_read+0x15>
  402205:	89 e8                	mov    %ebp,%eax
  402207:	49 39 c4             	cmp    %rax,%r12
  40220a:	77 03                	ja     40220f <rio_read+0x54>
  40220c:	44 89 e5             	mov    %r12d,%ebp
  40220f:	4c 63 e5             	movslq %ebp,%r12
  402212:	48 8b 73 08          	mov    0x8(%rbx),%rsi
  402216:	4c 89 e2             	mov    %r12,%rdx
  402219:	4c 89 ef             	mov    %r13,%rdi
  40221c:	e8 7f eb ff ff       	callq  400da0 <memcpy@plt>
  402221:	4c 01 63 08          	add    %r12,0x8(%rbx)
  402225:	29 6b 04             	sub    %ebp,0x4(%rbx)
  402228:	4c 89 e0             	mov    %r12,%rax
  40222b:	eb 0e                	jmp    40223b <rio_read+0x80>
  40222d:	48 c7 c0 ff ff ff ff 	mov    $0xffffffffffffffff,%rax
  402234:	eb 05                	jmp    40223b <rio_read+0x80>
  402236:	b8 00 00 00 00       	mov    $0x0,%eax
  40223b:	48 83 c4 08          	add    $0x8,%rsp
  40223f:	5b                   	pop    %rbx
  402240:	5d                   	pop    %rbp
  402241:	41 5c                	pop    %r12
  402243:	41 5d                	pop    %r13
  402245:	c3                   	retq   

0000000000402246 <rio_readlineb>:
  402246:	41 55                	push   %r13
  402248:	41 54                	push   %r12
  40224a:	55                   	push   %rbp
  40224b:	53                   	push   %rbx
  40224c:	48 83 ec 18          	sub    $0x18,%rsp
  402250:	49 89 fd             	mov    %rdi,%r13
  402253:	48 89 f5             	mov    %rsi,%rbp
  402256:	49 89 d4             	mov    %rdx,%r12
  402259:	64 48 8b 04 25 28 00 	mov    %fs:0x28,%rax
  402260:	00 00 
  402262:	48 89 44 24 08       	mov    %rax,0x8(%rsp)
  402267:	31 c0                	xor    %eax,%eax
  402269:	bb 01 00 00 00       	mov    $0x1,%ebx
  40226e:	eb 3f                	jmp    4022af <rio_readlineb+0x69>
  402270:	ba 01 00 00 00       	mov    $0x1,%edx
  402275:	48 8d 74 24 07       	lea    0x7(%rsp),%rsi
  40227a:	4c 89 ef             	mov    %r13,%rdi
  40227d:	e8 39 ff ff ff       	callq  4021bb <rio_read>
  402282:	83 f8 01             	cmp    $0x1,%eax
  402285:	75 15                	jne    40229c <rio_readlineb+0x56>
  402287:	48 8d 45 01          	lea    0x1(%rbp),%rax
  40228b:	0f b6 54 24 07       	movzbl 0x7(%rsp),%edx
  402290:	88 55 00             	mov    %dl,0x0(%rbp)
  402293:	80 7c 24 07 0a       	cmpb   $0xa,0x7(%rsp)
  402298:	75 0e                	jne    4022a8 <rio_readlineb+0x62>
  40229a:	eb 1a                	jmp    4022b6 <rio_readlineb+0x70>
  40229c:	85 c0                	test   %eax,%eax
  40229e:	75 22                	jne    4022c2 <rio_readlineb+0x7c>
  4022a0:	48 83 fb 01          	cmp    $0x1,%rbx
  4022a4:	75 13                	jne    4022b9 <rio_readlineb+0x73>
  4022a6:	eb 23                	jmp    4022cb <rio_readlineb+0x85>
  4022a8:	48 83 c3 01          	add    $0x1,%rbx
  4022ac:	48 89 c5             	mov    %rax,%rbp
  4022af:	4c 39 e3             	cmp    %r12,%rbx
  4022b2:	72 bc                	jb     402270 <rio_readlineb+0x2a>
  4022b4:	eb 03                	jmp    4022b9 <rio_readlineb+0x73>
  4022b6:	48 89 c5             	mov    %rax,%rbp
  4022b9:	c6 45 00 00          	movb   $0x0,0x0(%rbp)
  4022bd:	48 89 d8             	mov    %rbx,%rax
  4022c0:	eb 0e                	jmp    4022d0 <rio_readlineb+0x8a>
  4022c2:	48 c7 c0 ff ff ff ff 	mov    $0xffffffffffffffff,%rax
  4022c9:	eb 05                	jmp    4022d0 <rio_readlineb+0x8a>
  4022cb:	b8 00 00 00 00       	mov    $0x0,%eax
  4022d0:	48 8b 4c 24 08       	mov    0x8(%rsp),%rcx
  4022d5:	64 48 33 0c 25 28 00 	xor    %fs:0x28,%rcx
  4022dc:	00 00 
  4022de:	74 05                	je     4022e5 <rio_readlineb+0x9f>
  4022e0:	e8 0b ea ff ff       	callq  400cf0 <__stack_chk_fail@plt>
  4022e5:	48 83 c4 18          	add    $0x18,%rsp
  4022e9:	5b                   	pop    %rbx
  4022ea:	5d                   	pop    %rbp
  4022eb:	41 5c                	pop    %r12
  4022ed:	41 5d                	pop    %r13
  4022ef:	c3                   	retq   

00000000004022f0 <urlencode>:
  4022f0:	41 54                	push   %r12
  4022f2:	55                   	push   %rbp
  4022f3:	53                   	push   %rbx
  4022f4:	48 83 ec 10          	sub    $0x10,%rsp
  4022f8:	48 89 fb             	mov    %rdi,%rbx
  4022fb:	48 89 f5             	mov    %rsi,%rbp
  4022fe:	64 48 8b 04 25 28 00 	mov    %fs:0x28,%rax
  402305:	00 00 
  402307:	48 89 44 24 08       	mov    %rax,0x8(%rsp)
  40230c:	31 c0                	xor    %eax,%eax
  40230e:	48 c7 c1 ff ff ff ff 	mov    $0xffffffffffffffff,%rcx
  402315:	f2 ae                	repnz scas %es:(%rdi),%al
  402317:	48 f7 d1             	not    %rcx
  40231a:	8d 41 ff             	lea    -0x1(%rcx),%eax
  40231d:	e9 aa 00 00 00       	jmpq   4023cc <urlencode+0xdc>
  402322:	44 0f b6 03          	movzbl (%rbx),%r8d
  402326:	41 80 f8 2a          	cmp    $0x2a,%r8b
  40232a:	0f 94 c2             	sete   %dl
  40232d:	41 80 f8 2d          	cmp    $0x2d,%r8b
  402331:	0f 94 c0             	sete   %al
  402334:	08 c2                	or     %al,%dl
  402336:	75 24                	jne    40235c <urlencode+0x6c>
  402338:	41 80 f8 2e          	cmp    $0x2e,%r8b
  40233c:	74 1e                	je     40235c <urlencode+0x6c>
  40233e:	41 80 f8 5f          	cmp    $0x5f,%r8b
  402342:	74 18                	je     40235c <urlencode+0x6c>
  402344:	41 8d 40 d0          	lea    -0x30(%r8),%eax
  402348:	3c 09                	cmp    $0x9,%al
  40234a:	76 10                	jbe    40235c <urlencode+0x6c>
  40234c:	41 8d 40 bf          	lea    -0x41(%r8),%eax
  402350:	3c 19                	cmp    $0x19,%al
  402352:	76 08                	jbe    40235c <urlencode+0x6c>
  402354:	41 8d 40 9f          	lea    -0x61(%r8),%eax
  402358:	3c 19                	cmp    $0x19,%al
  40235a:	77 0a                	ja     402366 <urlencode+0x76>
  40235c:	44 88 45 00          	mov    %r8b,0x0(%rbp)
  402360:	48 8d 6d 01          	lea    0x1(%rbp),%rbp
  402364:	eb 5f                	jmp    4023c5 <urlencode+0xd5>
  402366:	41 80 f8 20          	cmp    $0x20,%r8b
  40236a:	75 0a                	jne    402376 <urlencode+0x86>
  40236c:	c6 45 00 2b          	movb   $0x2b,0x0(%rbp)
  402370:	48 8d 6d 01          	lea    0x1(%rbp),%rbp
  402374:	eb 4f                	jmp    4023c5 <urlencode+0xd5>
  402376:	41 8d 40 e0          	lea    -0x20(%r8),%eax
  40237a:	3c 5f                	cmp    $0x5f,%al
  40237c:	0f 96 c2             	setbe  %dl
  40237f:	41 80 f8 09          	cmp    $0x9,%r8b
  402383:	0f 94 c0             	sete   %al
  402386:	08 c2                	or     %al,%dl
  402388:	74 50                	je     4023da <urlencode+0xea>
  40238a:	45 0f b6 c0          	movzbl %r8b,%r8d
  40238e:	b9 68 36 40 00       	mov    $0x403668,%ecx
  402393:	ba 08 00 00 00       	mov    $0x8,%edx
  402398:	be 01 00 00 00       	mov    $0x1,%esi
  40239d:	48 89 e7             	mov    %rsp,%rdi
  4023a0:	b8 00 00 00 00       	mov    $0x0,%eax
  4023a5:	e8 d6 ea ff ff       	callq  400e80 <__sprintf_chk@plt>
  4023aa:	0f b6 04 24          	movzbl (%rsp),%eax
  4023ae:	88 45 00             	mov    %al,0x0(%rbp)
  4023b1:	0f b6 44 24 01       	movzbl 0x1(%rsp),%eax
  4023b6:	88 45 01             	mov    %al,0x1(%rbp)
  4023b9:	0f b6 44 24 02       	movzbl 0x2(%rsp),%eax
  4023be:	88 45 02             	mov    %al,0x2(%rbp)
  4023c1:	48 8d 6d 03          	lea    0x3(%rbp),%rbp
  4023c5:	48 83 c3 01          	add    $0x1,%rbx
  4023c9:	44 89 e0             	mov    %r12d,%eax
  4023cc:	44 8d 60 ff          	lea    -0x1(%rax),%r12d
  4023d0:	85 c0                	test   %eax,%eax
  4023d2:	0f 85 4a ff ff ff    	jne    402322 <urlencode+0x32>
  4023d8:	eb 05                	jmp    4023df <urlencode+0xef>
  4023da:	b8 ff ff ff ff       	mov    $0xffffffff,%eax
  4023df:	48 8b 74 24 08       	mov    0x8(%rsp),%rsi
  4023e4:	64 48 33 34 25 28 00 	xor    %fs:0x28,%rsi
  4023eb:	00 00 
  4023ed:	74 05                	je     4023f4 <urlencode+0x104>
  4023ef:	e8 fc e8 ff ff       	callq  400cf0 <__stack_chk_fail@plt>
  4023f4:	48 83 c4 10          	add    $0x10,%rsp
  4023f8:	5b                   	pop    %rbx
  4023f9:	5d                   	pop    %rbp
  4023fa:	41 5c                	pop    %r12
  4023fc:	c3                   	retq   

00000000004023fd <submitr>:
  4023fd:	41 57                	push   %r15
  4023ff:	41 56                	push   %r14
  402401:	41 55                	push   %r13
  402403:	41 54                	push   %r12
  402405:	55                   	push   %rbp
  402406:	53                   	push   %rbx
  402407:	48 81 ec 58 a0 00 00 	sub    $0xa058,%rsp
  40240e:	49 89 fc             	mov    %rdi,%r12
  402411:	89 74 24 04          	mov    %esi,0x4(%rsp)
  402415:	49 89 d7             	mov    %rdx,%r15
  402418:	49 89 ce             	mov    %rcx,%r14
  40241b:	4c 89 44 24 08       	mov    %r8,0x8(%rsp)
  402420:	4d 89 cd             	mov    %r9,%r13
  402423:	48 8b 9c 24 90 a0 00 	mov    0xa090(%rsp),%rbx
  40242a:	00 
  40242b:	64 48 8b 04 25 28 00 	mov    %fs:0x28,%rax
  402432:	00 00 
  402434:	48 89 84 24 48 a0 00 	mov    %rax,0xa048(%rsp)
  40243b:	00 
  40243c:	31 c0                	xor    %eax,%eax
  40243e:	c7 44 24 1c 00 00 00 	movl   $0x0,0x1c(%rsp)
  402445:	00 
  402446:	ba 00 00 00 00       	mov    $0x0,%edx
  40244b:	be 01 00 00 00       	mov    $0x1,%esi
  402450:	bf 02 00 00 00       	mov    $0x2,%edi
  402455:	e8 36 ea ff ff       	callq  400e90 <socket@plt>
  40245a:	85 c0                	test   %eax,%eax
  40245c:	79 4e                	jns    4024ac <submitr+0xaf>
  40245e:	48 b8 45 72 72 6f 72 	movabs $0x43203a726f727245,%rax
  402465:	3a 20 43 
  402468:	48 89 03             	mov    %rax,(%rbx)
  40246b:	48 b8 6c 69 65 6e 74 	movabs $0x6e7520746e65696c,%rax
  402472:	20 75 6e 
  402475:	48 89 43 08          	mov    %rax,0x8(%rbx)
  402479:	48 b8 61 62 6c 65 20 	movabs $0x206f7420656c6261,%rax
  402480:	74 6f 20 
  402483:	48 89 43 10          	mov    %rax,0x10(%rbx)
  402487:	48 b8 63 72 65 61 74 	movabs $0x7320657461657263,%rax
  40248e:	65 20 73 
  402491:	48 89 43 18          	mov    %rax,0x18(%rbx)
  402495:	c7 43 20 6f 63 6b 65 	movl   $0x656b636f,0x20(%rbx)
  40249c:	66 c7 43 24 74 00    	movw   $0x74,0x24(%rbx)
  4024a2:	b8 ff ff ff ff       	mov    $0xffffffff,%eax
  4024a7:	e9 97 06 00 00       	jmpq   402b43 <submitr+0x746>
  4024ac:	89 c5                	mov    %eax,%ebp
  4024ae:	4c 89 e7             	mov    %r12,%rdi
  4024b1:	e8 ba e8 ff ff       	callq  400d70 <gethostbyname@plt>
  4024b6:	48 85 c0             	test   %rax,%rax
  4024b9:	75 67                	jne    402522 <submitr+0x125>
  4024bb:	48 b8 45 72 72 6f 72 	movabs $0x44203a726f727245,%rax
  4024c2:	3a 20 44 
  4024c5:	48 89 03             	mov    %rax,(%rbx)
  4024c8:	48 b8 4e 53 20 69 73 	movabs $0x6e7520736920534e,%rax
  4024cf:	20 75 6e 
  4024d2:	48 89 43 08          	mov    %rax,0x8(%rbx)
  4024d6:	48 b8 61 62 6c 65 20 	movabs $0x206f7420656c6261,%rax
  4024dd:	74 6f 20 
  4024e0:	48 89 43 10          	mov    %rax,0x10(%rbx)
  4024e4:	48 b8 72 65 73 6f 6c 	movabs $0x2065766c6f736572,%rax
  4024eb:	76 65 20 
  4024ee:	48 89 43 18          	mov    %rax,0x18(%rbx)
  4024f2:	48 b8 73 65 72 76 65 	movabs $0x6120726576726573,%rax
  4024f9:	72 20 61 
  4024fc:	48 89 43 20          	mov    %rax,0x20(%rbx)
  402500:	c7 43 28 64 64 72 65 	movl   $0x65726464,0x28(%rbx)
  402507:	66 c7 43 2c 73 73    	movw   $0x7373,0x2c(%rbx)
  40250d:	c6 43 2e 00          	movb   $0x0,0x2e(%rbx)
  402511:	89 ef                	mov    %ebp,%edi
  402513:	e8 18 e8 ff ff       	callq  400d30 <close@plt>
  402518:	b8 ff ff ff ff       	mov    $0xffffffff,%eax
  40251d:	e9 21 06 00 00       	jmpq   402b43 <submitr+0x746>
  402522:	48 c7 44 24 20 00 00 	movq   $0x0,0x20(%rsp)
  402529:	00 00 
  40252b:	48 c7 44 24 28 00 00 	movq   $0x0,0x28(%rsp)
  402532:	00 00 
  402534:	66 c7 44 24 20 02 00 	movw   $0x2,0x20(%rsp)
  40253b:	48 63 50 14          	movslq 0x14(%rax),%rdx
  40253f:	48 8b 40 18          	mov    0x18(%rax),%rax
  402543:	48 8b 30             	mov    (%rax),%rsi
  402546:	48 8d 7c 24 24       	lea    0x24(%rsp),%rdi
  40254b:	b9 0c 00 00 00       	mov    $0xc,%ecx
  402550:	e8 2b e8 ff ff       	callq  400d80 <__memmove_chk@plt>
  402555:	0f b7 44 24 04       	movzwl 0x4(%rsp),%eax
  40255a:	66 c1 c8 08          	ror    $0x8,%ax
  40255e:	66 89 44 24 22       	mov    %ax,0x22(%rsp)
  402563:	ba 10 00 00 00       	mov    $0x10,%edx
  402568:	48 8d 74 24 20       	lea    0x20(%rsp),%rsi
  40256d:	89 ef                	mov    %ebp,%edi
  40256f:	e8 ec e8 ff ff       	callq  400e60 <connect@plt>
  402574:	85 c0                	test   %eax,%eax
  402576:	79 59                	jns    4025d1 <submitr+0x1d4>
  402578:	48 b8 45 72 72 6f 72 	movabs $0x55203a726f727245,%rax
  40257f:	3a 20 55 
  402582:	48 89 03             	mov    %rax,(%rbx)
  402585:	48 b8 6e 61 62 6c 65 	movabs $0x6f7420656c62616e,%rax
  40258c:	20 74 6f 
  40258f:	48 89 43 08          	mov    %rax,0x8(%rbx)
  402593:	48 b8 20 63 6f 6e 6e 	movabs $0x7463656e6e6f6320,%rax
  40259a:	65 63 74 
  40259d:	48 89 43 10          	mov    %rax,0x10(%rbx)
  4025a1:	48 b8 20 74 6f 20 74 	movabs $0x20656874206f7420,%rax
  4025a8:	68 65 20 
  4025ab:	48 89 43 18          	mov    %rax,0x18(%rbx)
  4025af:	c7 43 20 73 65 72 76 	movl   $0x76726573,0x20(%rbx)
  4025b6:	66 c7 43 24 65 72    	movw   $0x7265,0x24(%rbx)
  4025bc:	c6 43 26 00          	movb   $0x0,0x26(%rbx)
  4025c0:	89 ef                	mov    %ebp,%edi
  4025c2:	e8 69 e7 ff ff       	callq  400d30 <close@plt>
  4025c7:	b8 ff ff ff ff       	mov    $0xffffffff,%eax
  4025cc:	e9 72 05 00 00       	jmpq   402b43 <submitr+0x746>
  4025d1:	48 c7 c6 ff ff ff ff 	mov    $0xffffffffffffffff,%rsi
  4025d8:	b8 00 00 00 00       	mov    $0x0,%eax
  4025dd:	48 89 f1             	mov    %rsi,%rcx
  4025e0:	4c 89 ef             	mov    %r13,%rdi
  4025e3:	f2 ae                	repnz scas %es:(%rdi),%al
  4025e5:	48 f7 d1             	not    %rcx
  4025e8:	48 89 ca             	mov    %rcx,%rdx
  4025eb:	48 89 f1             	mov    %rsi,%rcx
  4025ee:	4c 89 ff             	mov    %r15,%rdi
  4025f1:	f2 ae                	repnz scas %es:(%rdi),%al
  4025f3:	48 f7 d1             	not    %rcx
  4025f6:	49 89 c8             	mov    %rcx,%r8
  4025f9:	48 89 f1             	mov    %rsi,%rcx
  4025fc:	4c 89 f7             	mov    %r14,%rdi
  4025ff:	f2 ae                	repnz scas %es:(%rdi),%al
  402601:	48 f7 d1             	not    %rcx
  402604:	4d 8d 44 08 fe       	lea    -0x2(%r8,%rcx,1),%r8
  402609:	48 89 f1             	mov    %rsi,%rcx
  40260c:	48 8b 7c 24 08       	mov    0x8(%rsp),%rdi
  402611:	f2 ae                	repnz scas %es:(%rdi),%al
  402613:	48 89 c8             	mov    %rcx,%rax
  402616:	48 f7 d0             	not    %rax
  402619:	49 8d 4c 00 ff       	lea    -0x1(%r8,%rax,1),%rcx
  40261e:	48 8d 44 52 fd       	lea    -0x3(%rdx,%rdx,2),%rax
  402623:	48 8d 84 01 80 00 00 	lea    0x80(%rcx,%rax,1),%rax
  40262a:	00 
  40262b:	48 3d 00 20 00 00    	cmp    $0x2000,%rax
  402631:	76 72                	jbe    4026a5 <submitr+0x2a8>
  402633:	48 b8 45 72 72 6f 72 	movabs $0x52203a726f727245,%rax
  40263a:	3a 20 52 
  40263d:	48 89 03             	mov    %rax,(%rbx)
  402640:	48 b8 65 73 75 6c 74 	movabs $0x747320746c757365,%rax
  402647:	20 73 74 
  40264a:	48 89 43 08          	mov    %rax,0x8(%rbx)
  40264e:	48 b8 72 69 6e 67 20 	movabs $0x6f6f7420676e6972,%rax
  402655:	74 6f 6f 
  402658:	48 89 43 10          	mov    %rax,0x10(%rbx)
  40265c:	48 b8 20 6c 61 72 67 	movabs $0x202e656772616c20,%rax
  402663:	65 2e 20 
  402666:	48 89 43 18          	mov    %rax,0x18(%rbx)
  40266a:	48 b8 49 6e 63 72 65 	movabs $0x6573616572636e49,%rax
  402671:	61 73 65 
  402674:	48 89 43 20          	mov    %rax,0x20(%rbx)
  402678:	48 b8 20 53 55 42 4d 	movabs $0x5254494d42555320,%rax
  40267f:	49 54 52 
  402682:	48 89 43 28          	mov    %rax,0x28(%rbx)
  402686:	48 b8 5f 4d 41 58 42 	movabs $0x46554258414d5f,%rax
  40268d:	55 46 00 
  402690:	48 89 43 30          	mov    %rax,0x30(%rbx)
  402694:	89 ef                	mov    %ebp,%edi
  402696:	e8 95 e6 ff ff       	callq  400d30 <close@plt>
  40269b:	b8 ff ff ff ff       	mov    $0xffffffff,%eax
  4026a0:	e9 9e 04 00 00       	jmpq   402b43 <submitr+0x746>
  4026a5:	48 8d b4 24 40 40 00 	lea    0x4040(%rsp),%rsi
  4026ac:	00 
  4026ad:	b9 00 04 00 00       	mov    $0x400,%ecx
  4026b2:	b8 00 00 00 00       	mov    $0x0,%eax
  4026b7:	48 89 f7             	mov    %rsi,%rdi
  4026ba:	f3 48 ab             	rep stos %rax,%es:(%rdi)
  4026bd:	4c 89 ef             	mov    %r13,%rdi
  4026c0:	e8 2b fc ff ff       	callq  4022f0 <urlencode>
  4026c5:	85 c0                	test   %eax,%eax
  4026c7:	0f 89 8a 00 00 00    	jns    402757 <submitr+0x35a>
  4026cd:	48 b8 45 72 72 6f 72 	movabs $0x52203a726f727245,%rax
  4026d4:	3a 20 52 
  4026d7:	48 89 03             	mov    %rax,(%rbx)
  4026da:	48 b8 65 73 75 6c 74 	movabs $0x747320746c757365,%rax
  4026e1:	20 73 74 
  4026e4:	48 89 43 08          	mov    %rax,0x8(%rbx)
  4026e8:	48 b8 72 69 6e 67 20 	movabs $0x6e6f6320676e6972,%rax
  4026ef:	63 6f 6e 
  4026f2:	48 89 43 10          	mov    %rax,0x10(%rbx)
  4026f6:	48 b8 74 61 69 6e 73 	movabs $0x6e6120736e696174,%rax
  4026fd:	20 61 6e 
  402700:	48 89 43 18          	mov    %rax,0x18(%rbx)
  402704:	48 b8 20 69 6c 6c 65 	movabs $0x6c6167656c6c6920,%rax
  40270b:	67 61 6c 
  40270e:	48 89 43 20          	mov    %rax,0x20(%rbx)
  402712:	48 b8 20 6f 72 20 75 	movabs $0x72706e7520726f20,%rax
  402719:	6e 70 72 
  40271c:	48 89 43 28          	mov    %rax,0x28(%rbx)
  402720:	48 b8 69 6e 74 61 62 	movabs $0x20656c6261746e69,%rax
  402727:	6c 65 20 
  40272a:	48 89 43 30          	mov    %rax,0x30(%rbx)
  40272e:	48 b8 63 68 61 72 61 	movabs $0x6574636172616863,%rax
  402735:	63 74 65 
  402738:	48 89 43 38          	mov    %rax,0x38(%rbx)
  40273c:	66 c7 43 40 72 2e    	movw   $0x2e72,0x40(%rbx)
  402742:	c6 43 42 00          	movb   $0x0,0x42(%rbx)
  402746:	89 ef                	mov    %ebp,%edi
  402748:	e8 e3 e5 ff ff       	callq  400d30 <close@plt>
  40274d:	b8 ff ff ff ff       	mov    $0xffffffff,%eax
  402752:	e9 ec 03 00 00       	jmpq   402b43 <submitr+0x746>
  402757:	4c 8d ac 24 40 20 00 	lea    0x2040(%rsp),%r13
  40275e:	00 
  40275f:	41 54                	push   %r12
  402761:	48 8d 84 24 48 40 00 	lea    0x4048(%rsp),%rax
  402768:	00 
  402769:	50                   	push   %rax
  40276a:	4d 89 f9             	mov    %r15,%r9
  40276d:	4d 89 f0             	mov    %r14,%r8
  402770:	b9 f8 35 40 00       	mov    $0x4035f8,%ecx
  402775:	ba 00 20 00 00       	mov    $0x2000,%edx
  40277a:	be 01 00 00 00       	mov    $0x1,%esi
  40277f:	4c 89 ef             	mov    %r13,%rdi
  402782:	b8 00 00 00 00       	mov    $0x0,%eax
  402787:	e8 f4 e6 ff ff       	callq  400e80 <__sprintf_chk@plt>
  40278c:	b8 00 00 00 00       	mov    $0x0,%eax
  402791:	48 c7 c1 ff ff ff ff 	mov    $0xffffffffffffffff,%rcx
  402798:	4c 89 ef             	mov    %r13,%rdi
  40279b:	f2 ae                	repnz scas %es:(%rdi),%al
  40279d:	48 f7 d1             	not    %rcx
  4027a0:	48 8d 51 ff          	lea    -0x1(%rcx),%rdx
  4027a4:	4c 89 ee             	mov    %r13,%rsi
  4027a7:	89 ef                	mov    %ebp,%edi
  4027a9:	e8 b1 f9 ff ff       	callq  40215f <rio_writen>
  4027ae:	48 83 c4 10          	add    $0x10,%rsp
  4027b2:	48 85 c0             	test   %rax,%rax
  4027b5:	79 6e                	jns    402825 <submitr+0x428>
  4027b7:	48 b8 45 72 72 6f 72 	movabs $0x43203a726f727245,%rax
  4027be:	3a 20 43 
  4027c1:	48 89 03             	mov    %rax,(%rbx)
  4027c4:	48 b8 6c 69 65 6e 74 	movabs $0x6e7520746e65696c,%rax
  4027cb:	20 75 6e 
  4027ce:	48 89 43 08          	mov    %rax,0x8(%rbx)
  4027d2:	48 b8 61 62 6c 65 20 	movabs $0x206f7420656c6261,%rax
  4027d9:	74 6f 20 
  4027dc:	48 89 43 10          	mov    %rax,0x10(%rbx)
  4027e0:	48 b8 77 72 69 74 65 	movabs $0x6f74206574697277,%rax
  4027e7:	20 74 6f 
  4027ea:	48 89 43 18          	mov    %rax,0x18(%rbx)
  4027ee:	48 b8 20 74 68 65 20 	movabs $0x7365722065687420,%rax
  4027f5:	72 65 73 
  4027f8:	48 89 43 20          	mov    %rax,0x20(%rbx)
  4027fc:	48 b8 75 6c 74 20 73 	movabs $0x7672657320746c75,%rax
  402803:	65 72 76 
  402806:	48 89 43 28          	mov    %rax,0x28(%rbx)
  40280a:	66 c7 43 30 65 72    	movw   $0x7265,0x30(%rbx)
  402810:	c6 43 32 00          	movb   $0x0,0x32(%rbx)
  402814:	89 ef                	mov    %ebp,%edi
  402816:	e8 15 e5 ff ff       	callq  400d30 <close@plt>
  40281b:	b8 ff ff ff ff       	mov    $0xffffffff,%eax
  402820:	e9 1e 03 00 00       	jmpq   402b43 <submitr+0x746>
  402825:	89 ee                	mov    %ebp,%esi
  402827:	48 8d 7c 24 30       	lea    0x30(%rsp),%rdi
  40282c:	e8 ee f8 ff ff       	callq  40211f <rio_readinitb>
  402831:	ba 00 20 00 00       	mov    $0x2000,%edx
  402836:	48 8d b4 24 40 20 00 	lea    0x2040(%rsp),%rsi
  40283d:	00 
  40283e:	48 8d 7c 24 30       	lea    0x30(%rsp),%rdi
  402843:	e8 fe f9 ff ff       	callq  402246 <rio_readlineb>
  402848:	48 85 c0             	test   %rax,%rax
  40284b:	7f 7d                	jg     4028ca <submitr+0x4cd>
  40284d:	48 b8 45 72 72 6f 72 	movabs $0x43203a726f727245,%rax
  402854:	3a 20 43 
  402857:	48 89 03             	mov    %rax,(%rbx)
  40285a:	48 b8 6c 69 65 6e 74 	movabs $0x6e7520746e65696c,%rax
  402861:	20 75 6e 
  402864:	48 89 43 08          	mov    %rax,0x8(%rbx)
  402868:	48 b8 61 62 6c 65 20 	movabs $0x206f7420656c6261,%rax
  40286f:	74 6f 20 
  402872:	48 89 43 10          	mov    %rax,0x10(%rbx)
  402876:	48 b8 72 65 61 64 20 	movabs $0x7269662064616572,%rax
  40287d:	66 69 72 
  402880:	48 89 43 18          	mov    %rax,0x18(%rbx)
  402884:	48 b8 73 74 20 68 65 	movabs $0x6564616568207473,%rax
  40288b:	61 64 65 
  40288e:	48 89 43 20          	mov    %rax,0x20(%rbx)
  402892:	48 b8 72 20 66 72 6f 	movabs $0x72206d6f72662072,%rax
  402899:	6d 20 72 
  40289c:	48 89 43 28          	mov    %rax,0x28(%rbx)
  4028a0:	48 b8 65 73 75 6c 74 	movabs $0x657320746c757365,%rax
  4028a7:	20 73 65 
  4028aa:	48 89 43 30          	mov    %rax,0x30(%rbx)
  4028ae:	c7 43 38 72 76 65 72 	movl   $0x72657672,0x38(%rbx)
  4028b5:	c6 43 3c 00          	movb   $0x0,0x3c(%rbx)
  4028b9:	89 ef                	mov    %ebp,%edi
  4028bb:	e8 70 e4 ff ff       	callq  400d30 <close@plt>
  4028c0:	b8 ff ff ff ff       	mov    $0xffffffff,%eax
  4028c5:	e9 79 02 00 00       	jmpq   402b43 <submitr+0x746>
  4028ca:	4c 8d 84 24 40 80 00 	lea    0x8040(%rsp),%r8
  4028d1:	00 
  4028d2:	48 8d 4c 24 1c       	lea    0x1c(%rsp),%rcx
  4028d7:	48 8d 94 24 40 60 00 	lea    0x6040(%rsp),%rdx
  4028de:	00 
  4028df:	be 6f 36 40 00       	mov    $0x40366f,%esi
  4028e4:	48 8d bc 24 40 20 00 	lea    0x2040(%rsp),%rdi
  4028eb:	00 
  4028ec:	b8 00 00 00 00       	mov    $0x0,%eax
  4028f1:	e8 ea e4 ff ff       	callq  400de0 <__isoc99_sscanf@plt>
  4028f6:	e9 95 00 00 00       	jmpq   402990 <submitr+0x593>
  4028fb:	ba 00 20 00 00       	mov    $0x2000,%edx
  402900:	48 8d b4 24 40 20 00 	lea    0x2040(%rsp),%rsi
  402907:	00 
  402908:	48 8d 7c 24 30       	lea    0x30(%rsp),%rdi
  40290d:	e8 34 f9 ff ff       	callq  402246 <rio_readlineb>
  402912:	48 85 c0             	test   %rax,%rax
  402915:	7f 79                	jg     402990 <submitr+0x593>
  402917:	48 b8 45 72 72 6f 72 	movabs $0x43203a726f727245,%rax
  40291e:	3a 20 43 
  402921:	48 89 03             	mov    %rax,(%rbx)
  402924:	48 b8 6c 69 65 6e 74 	movabs $0x6e7520746e65696c,%rax
  40292b:	20 75 6e 
  40292e:	48 89 43 08          	mov    %rax,0x8(%rbx)
  402932:	48 b8 61 62 6c 65 20 	movabs $0x206f7420656c6261,%rax
  402939:	74 6f 20 
  40293c:	48 89 43 10          	mov    %rax,0x10(%rbx)
  402940:	48 b8 72 65 61 64 20 	movabs $0x6165682064616572,%rax
  402947:	68 65 61 
  40294a:	48 89 43 18          	mov    %rax,0x18(%rbx)
  40294e:	48 b8 64 65 72 73 20 	movabs $0x6f72662073726564,%rax
  402955:	66 72 6f 
  402958:	48 89 43 20          	mov    %rax,0x20(%rbx)
  40295c:	48 b8 6d 20 74 68 65 	movabs $0x657220656874206d,%rax
  402963:	20 72 65 
  402966:	48 89 43 28          	mov    %rax,0x28(%rbx)
  40296a:	48 b8 73 75 6c 74 20 	movabs $0x72657320746c7573,%rax
  402971:	73 65 72 
  402974:	48 89 43 30          	mov    %rax,0x30(%rbx)
  402978:	c7 43 38 76 65 72 00 	movl   $0x726576,0x38(%rbx)
  40297f:	89 ef                	mov    %ebp,%edi
  402981:	e8 aa e3 ff ff       	callq  400d30 <close@plt>
  402986:	b8 ff ff ff ff       	mov    $0xffffffff,%eax
  40298b:	e9 b3 01 00 00       	jmpq   402b43 <submitr+0x746>
  402990:	0f b6 94 24 40 20 00 	movzbl 0x2040(%rsp),%edx
  402997:	00 
  402998:	b8 0d 00 00 00       	mov    $0xd,%eax
  40299d:	29 d0                	sub    %edx,%eax
  40299f:	75 1b                	jne    4029bc <submitr+0x5bf>
  4029a1:	0f b6 94 24 41 20 00 	movzbl 0x2041(%rsp),%edx
  4029a8:	00 
  4029a9:	b8 0a 00 00 00       	mov    $0xa,%eax
  4029ae:	29 d0                	sub    %edx,%eax
  4029b0:	75 0a                	jne    4029bc <submitr+0x5bf>
  4029b2:	0f b6 84 24 42 20 00 	movzbl 0x2042(%rsp),%eax
  4029b9:	00 
  4029ba:	f7 d8                	neg    %eax
  4029bc:	85 c0                	test   %eax,%eax
  4029be:	0f 85 37 ff ff ff    	jne    4028fb <submitr+0x4fe>
  4029c4:	ba 00 20 00 00       	mov    $0x2000,%edx
  4029c9:	48 8d b4 24 40 20 00 	lea    0x2040(%rsp),%rsi
  4029d0:	00 
  4029d1:	48 8d 7c 24 30       	lea    0x30(%rsp),%rdi
  4029d6:	e8 6b f8 ff ff       	callq  402246 <rio_readlineb>
  4029db:	48 85 c0             	test   %rax,%rax
  4029de:	0f 8f 83 00 00 00    	jg     402a67 <submitr+0x66a>
  4029e4:	48 b8 45 72 72 6f 72 	movabs $0x43203a726f727245,%rax
  4029eb:	3a 20 43 
  4029ee:	48 89 03             	mov    %rax,(%rbx)
  4029f1:	48 b8 6c 69 65 6e 74 	movabs $0x6e7520746e65696c,%rax
  4029f8:	20 75 6e 
  4029fb:	48 89 43 08          	mov    %rax,0x8(%rbx)
  4029ff:	48 b8 61 62 6c 65 20 	movabs $0x206f7420656c6261,%rax
  402a06:	74 6f 20 
  402a09:	48 89 43 10          	mov    %rax,0x10(%rbx)
  402a0d:	48 b8 72 65 61 64 20 	movabs $0x6174732064616572,%rax
  402a14:	73 74 61 
  402a17:	48 89 43 18          	mov    %rax,0x18(%rbx)
  402a1b:	48 b8 74 75 73 20 6d 	movabs $0x7373656d20737574,%rax
  402a22:	65 73 73 
  402a25:	48 89 43 20          	mov    %rax,0x20(%rbx)
  402a29:	48 b8 61 67 65 20 66 	movabs $0x6d6f726620656761,%rax
  402a30:	72 6f 6d 
  402a33:	48 89 43 28          	mov    %rax,0x28(%rbx)
  402a37:	48 b8 20 72 65 73 75 	movabs $0x20746c7573657220,%rax
  402a3e:	6c 74 20 
  402a41:	48 89 43 30          	mov    %rax,0x30(%rbx)
  402a45:	c7 43 38 73 65 72 76 	movl   $0x76726573,0x38(%rbx)
  402a4c:	66 c7 43 3c 65 72    	movw   $0x7265,0x3c(%rbx)
  402a52:	c6 43 3e 00          	movb   $0x0,0x3e(%rbx)
  402a56:	89 ef                	mov    %ebp,%edi
  402a58:	e8 d3 e2 ff ff       	callq  400d30 <close@plt>
  402a5d:	b8 ff ff ff ff       	mov    $0xffffffff,%eax
  402a62:	e9 dc 00 00 00       	jmpq   402b43 <submitr+0x746>
  402a67:	44 8b 44 24 1c       	mov    0x1c(%rsp),%r8d
  402a6c:	41 81 f8 c8 00 00 00 	cmp    $0xc8,%r8d
  402a73:	74 37                	je     402aac <submitr+0x6af>
  402a75:	4c 8d 8c 24 40 80 00 	lea    0x8040(%rsp),%r9
  402a7c:	00 
  402a7d:	b9 38 36 40 00       	mov    $0x403638,%ecx
  402a82:	48 c7 c2 ff ff ff ff 	mov    $0xffffffffffffffff,%rdx
  402a89:	be 01 00 00 00       	mov    $0x1,%esi
  402a8e:	48 89 df             	mov    %rbx,%rdi
  402a91:	b8 00 00 00 00       	mov    $0x0,%eax
  402a96:	e8 e5 e3 ff ff       	callq  400e80 <__sprintf_chk@plt>
  402a9b:	89 ef                	mov    %ebp,%edi
  402a9d:	e8 8e e2 ff ff       	callq  400d30 <close@plt>
  402aa2:	b8 ff ff ff ff       	mov    $0xffffffff,%eax
  402aa7:	e9 97 00 00 00       	jmpq   402b43 <submitr+0x746>
  402aac:	48 8d b4 24 40 20 00 	lea    0x2040(%rsp),%rsi
  402ab3:	00 
  402ab4:	48 89 df             	mov    %rbx,%rdi
  402ab7:	e8 04 e2 ff ff       	callq  400cc0 <strcpy@plt>
  402abc:	89 ef                	mov    %ebp,%edi
  402abe:	e8 6d e2 ff ff       	callq  400d30 <close@plt>
  402ac3:	0f b6 03             	movzbl (%rbx),%eax
  402ac6:	ba 4f 00 00 00       	mov    $0x4f,%edx
  402acb:	29 c2                	sub    %eax,%edx
  402acd:	75 22                	jne    402af1 <submitr+0x6f4>
  402acf:	0f b6 4b 01          	movzbl 0x1(%rbx),%ecx
  402ad3:	b8 4b 00 00 00       	mov    $0x4b,%eax
  402ad8:	29 c8                	sub    %ecx,%eax
  402ada:	75 17                	jne    402af3 <submitr+0x6f6>
  402adc:	0f b6 4b 02          	movzbl 0x2(%rbx),%ecx
  402ae0:	b8 0a 00 00 00       	mov    $0xa,%eax
  402ae5:	29 c8                	sub    %ecx,%eax
  402ae7:	75 0a                	jne    402af3 <submitr+0x6f6>
  402ae9:	0f b6 43 03          	movzbl 0x3(%rbx),%eax
  402aed:	f7 d8                	neg    %eax
  402aef:	eb 02                	jmp    402af3 <submitr+0x6f6>
  402af1:	89 d0                	mov    %edx,%eax
  402af3:	85 c0                	test   %eax,%eax
  402af5:	74 40                	je     402b37 <submitr+0x73a>
  402af7:	bf 80 36 40 00       	mov    $0x403680,%edi
  402afc:	b9 05 00 00 00       	mov    $0x5,%ecx
  402b01:	48 89 de             	mov    %rbx,%rsi
  402b04:	f3 a6                	repz cmpsb %es:(%rdi),%ds:(%rsi)
  402b06:	0f 97 c0             	seta   %al
  402b09:	0f 92 c1             	setb   %cl
  402b0c:	29 c8                	sub    %ecx,%eax
  402b0e:	0f be c0             	movsbl %al,%eax
  402b11:	85 c0                	test   %eax,%eax
  402b13:	74 2e                	je     402b43 <submitr+0x746>
  402b15:	85 d2                	test   %edx,%edx
  402b17:	75 13                	jne    402b2c <submitr+0x72f>
  402b19:	0f b6 43 01          	movzbl 0x1(%rbx),%eax
  402b1d:	ba 4b 00 00 00       	mov    $0x4b,%edx
  402b22:	29 c2                	sub    %eax,%edx
  402b24:	75 06                	jne    402b2c <submitr+0x72f>
  402b26:	0f b6 53 02          	movzbl 0x2(%rbx),%edx
  402b2a:	f7 da                	neg    %edx
  402b2c:	85 d2                	test   %edx,%edx
  402b2e:	75 0e                	jne    402b3e <submitr+0x741>
  402b30:	b8 00 00 00 00       	mov    $0x0,%eax
  402b35:	eb 0c                	jmp    402b43 <submitr+0x746>
  402b37:	b8 00 00 00 00       	mov    $0x0,%eax
  402b3c:	eb 05                	jmp    402b43 <submitr+0x746>
  402b3e:	b8 ff ff ff ff       	mov    $0xffffffff,%eax
  402b43:	48 8b 9c 24 48 a0 00 	mov    0xa048(%rsp),%rbx
  402b4a:	00 
  402b4b:	64 48 33 1c 25 28 00 	xor    %fs:0x28,%rbx
  402b52:	00 00 
  402b54:	74 05                	je     402b5b <submitr+0x75e>
  402b56:	e8 95 e1 ff ff       	callq  400cf0 <__stack_chk_fail@plt>
  402b5b:	48 81 c4 58 a0 00 00 	add    $0xa058,%rsp
  402b62:	5b                   	pop    %rbx
  402b63:	5d                   	pop    %rbp
  402b64:	41 5c                	pop    %r12
  402b66:	41 5d                	pop    %r13
  402b68:	41 5e                	pop    %r14
  402b6a:	41 5f                	pop    %r15
  402b6c:	c3                   	retq   

0000000000402b6d <init_timeout>:
  402b6d:	85 ff                	test   %edi,%edi
  402b6f:	74 23                	je     402b94 <init_timeout+0x27>
  402b71:	53                   	push   %rbx
  402b72:	89 fb                	mov    %edi,%ebx
  402b74:	85 ff                	test   %edi,%edi
  402b76:	79 05                	jns    402b7d <init_timeout+0x10>
  402b78:	bb 00 00 00 00       	mov    $0x0,%ebx
  402b7d:	be 31 21 40 00       	mov    $0x402131,%esi
  402b82:	bf 0e 00 00 00       	mov    $0xe,%edi
  402b87:	e8 d4 e1 ff ff       	callq  400d60 <signal@plt>
  402b8c:	89 df                	mov    %ebx,%edi
  402b8e:	e8 8d e1 ff ff       	callq  400d20 <alarm@plt>
  402b93:	5b                   	pop    %rbx
  402b94:	f3 c3                	repz retq 

0000000000402b96 <init_driver>:
  402b96:	55                   	push   %rbp
  402b97:	53                   	push   %rbx
  402b98:	48 83 ec 28          	sub    $0x28,%rsp
  402b9c:	48 89 fd             	mov    %rdi,%rbp
  402b9f:	64 48 8b 04 25 28 00 	mov    %fs:0x28,%rax
  402ba6:	00 00 
  402ba8:	48 89 44 24 18       	mov    %rax,0x18(%rsp)
  402bad:	31 c0                	xor    %eax,%eax
  402baf:	be 01 00 00 00       	mov    $0x1,%esi
  402bb4:	bf 0d 00 00 00       	mov    $0xd,%edi
  402bb9:	e8 a2 e1 ff ff       	callq  400d60 <signal@plt>
  402bbe:	be 01 00 00 00       	mov    $0x1,%esi
  402bc3:	bf 1d 00 00 00       	mov    $0x1d,%edi
  402bc8:	e8 93 e1 ff ff       	callq  400d60 <signal@plt>
  402bcd:	be 01 00 00 00       	mov    $0x1,%esi
  402bd2:	bf 1d 00 00 00       	mov    $0x1d,%edi
  402bd7:	e8 84 e1 ff ff       	callq  400d60 <signal@plt>
  402bdc:	ba 00 00 00 00       	mov    $0x0,%edx
  402be1:	be 01 00 00 00       	mov    $0x1,%esi
  402be6:	bf 02 00 00 00       	mov    $0x2,%edi
  402beb:	e8 a0 e2 ff ff       	callq  400e90 <socket@plt>
  402bf0:	85 c0                	test   %eax,%eax
  402bf2:	79 4f                	jns    402c43 <init_driver+0xad>
  402bf4:	48 b8 45 72 72 6f 72 	movabs $0x43203a726f727245,%rax
  402bfb:	3a 20 43 
  402bfe:	48 89 45 00          	mov    %rax,0x0(%rbp)
  402c02:	48 b8 6c 69 65 6e 74 	movabs $0x6e7520746e65696c,%rax
  402c09:	20 75 6e 
  402c0c:	48 89 45 08          	mov    %rax,0x8(%rbp)
  402c10:	48 b8 61 62 6c 65 20 	movabs $0x206f7420656c6261,%rax
  402c17:	74 6f 20 
  402c1a:	48 89 45 10          	mov    %rax,0x10(%rbp)
  402c1e:	48 b8 63 72 65 61 74 	movabs $0x7320657461657263,%rax
  402c25:	65 20 73 
  402c28:	48 89 45 18          	mov    %rax,0x18(%rbp)
  402c2c:	c7 45 20 6f 63 6b 65 	movl   $0x656b636f,0x20(%rbp)
  402c33:	66 c7 45 24 74 00    	movw   $0x74,0x24(%rbp)
  402c39:	b8 ff ff ff ff       	mov    $0xffffffff,%eax
  402c3e:	e9 2a 01 00 00       	jmpq   402d6d <init_driver+0x1d7>
  402c43:	89 c3                	mov    %eax,%ebx
  402c45:	bf 85 36 40 00       	mov    $0x403685,%edi
  402c4a:	e8 21 e1 ff ff       	callq  400d70 <gethostbyname@plt>
  402c4f:	48 85 c0             	test   %rax,%rax
  402c52:	75 68                	jne    402cbc <init_driver+0x126>
  402c54:	48 b8 45 72 72 6f 72 	movabs $0x44203a726f727245,%rax
  402c5b:	3a 20 44 
  402c5e:	48 89 45 00          	mov    %rax,0x0(%rbp)
  402c62:	48 b8 4e 53 20 69 73 	movabs $0x6e7520736920534e,%rax
  402c69:	20 75 6e 
  402c6c:	48 89 45 08          	mov    %rax,0x8(%rbp)
  402c70:	48 b8 61 62 6c 65 20 	movabs $0x206f7420656c6261,%rax
  402c77:	74 6f 20 
  402c7a:	48 89 45 10          	mov    %rax,0x10(%rbp)
  402c7e:	48 b8 72 65 73 6f 6c 	movabs $0x2065766c6f736572,%rax
  402c85:	76 65 20 
  402c88:	48 89 45 18          	mov    %rax,0x18(%rbp)
  402c8c:	48 b8 73 65 72 76 65 	movabs $0x6120726576726573,%rax
  402c93:	72 20 61 
  402c96:	48 89 45 20          	mov    %rax,0x20(%rbp)
  402c9a:	c7 45 28 64 64 72 65 	movl   $0x65726464,0x28(%rbp)
  402ca1:	66 c7 45 2c 73 73    	movw   $0x7373,0x2c(%rbp)
  402ca7:	c6 45 2e 00          	movb   $0x0,0x2e(%rbp)
  402cab:	89 df                	mov    %ebx,%edi
  402cad:	e8 7e e0 ff ff       	callq  400d30 <close@plt>
  402cb2:	b8 ff ff ff ff       	mov    $0xffffffff,%eax
  402cb7:	e9 b1 00 00 00       	jmpq   402d6d <init_driver+0x1d7>
  402cbc:	48 c7 04 24 00 00 00 	movq   $0x0,(%rsp)
  402cc3:	00 
  402cc4:	48 c7 44 24 08 00 00 	movq   $0x0,0x8(%rsp)
  402ccb:	00 00 
  402ccd:	66 c7 04 24 02 00    	movw   $0x2,(%rsp)
  402cd3:	48 63 50 14          	movslq 0x14(%rax),%rdx
  402cd7:	48 8b 40 18          	mov    0x18(%rax),%rax
  402cdb:	48 8b 30             	mov    (%rax),%rsi
  402cde:	48 8d 7c 24 04       	lea    0x4(%rsp),%rdi
  402ce3:	b9 0c 00 00 00       	mov    $0xc,%ecx
  402ce8:	e8 93 e0 ff ff       	callq  400d80 <__memmove_chk@plt>
  402ced:	66 c7 44 24 02 3c 9a 	movw   $0x9a3c,0x2(%rsp)
  402cf4:	ba 10 00 00 00       	mov    $0x10,%edx
  402cf9:	48 89 e6             	mov    %rsp,%rsi
  402cfc:	89 df                	mov    %ebx,%edi
  402cfe:	e8 5d e1 ff ff       	callq  400e60 <connect@plt>
  402d03:	85 c0                	test   %eax,%eax
  402d05:	79 50                	jns    402d57 <init_driver+0x1c1>
  402d07:	48 b8 45 72 72 6f 72 	movabs $0x55203a726f727245,%rax
  402d0e:	3a 20 55 
  402d11:	48 89 45 00          	mov    %rax,0x0(%rbp)
  402d15:	48 b8 6e 61 62 6c 65 	movabs $0x6f7420656c62616e,%rax
  402d1c:	20 74 6f 
  402d1f:	48 89 45 08          	mov    %rax,0x8(%rbp)
  402d23:	48 b8 20 63 6f 6e 6e 	movabs $0x7463656e6e6f6320,%rax
  402d2a:	65 63 74 
  402d2d:	48 89 45 10          	mov    %rax,0x10(%rbp)
  402d31:	48 b8 20 74 6f 20 73 	movabs $0x76726573206f7420,%rax
  402d38:	65 72 76 
  402d3b:	48 89 45 18          	mov    %rax,0x18(%rbp)
  402d3f:	66 c7 45 20 65 72    	movw   $0x7265,0x20(%rbp)
  402d45:	c6 45 22 00          	movb   $0x0,0x22(%rbp)
  402d49:	89 df                	mov    %ebx,%edi
  402d4b:	e8 e0 df ff ff       	callq  400d30 <close@plt>
  402d50:	b8 ff ff ff ff       	mov    $0xffffffff,%eax
  402d55:	eb 16                	jmp    402d6d <init_driver+0x1d7>
  402d57:	89 df                	mov    %ebx,%edi
  402d59:	e8 d2 df ff ff       	callq  400d30 <close@plt>
  402d5e:	66 c7 45 00 4f 4b    	movw   $0x4b4f,0x0(%rbp)
  402d64:	c6 45 02 00          	movb   $0x0,0x2(%rbp)
  402d68:	b8 00 00 00 00       	mov    $0x0,%eax
  402d6d:	48 8b 4c 24 18       	mov    0x18(%rsp),%rcx
  402d72:	64 48 33 0c 25 28 00 	xor    %fs:0x28,%rcx
  402d79:	00 00 
  402d7b:	74 05                	je     402d82 <init_driver+0x1ec>
  402d7d:	e8 6e df ff ff       	callq  400cf0 <__stack_chk_fail@plt>
  402d82:	48 83 c4 28          	add    $0x28,%rsp
  402d86:	5b                   	pop    %rbx
  402d87:	5d                   	pop    %rbp
  402d88:	c3                   	retq   

0000000000402d89 <driver_post>:
  402d89:	53                   	push   %rbx
  402d8a:	4c 89 cb             	mov    %r9,%rbx
  402d8d:	45 85 c0             	test   %r8d,%r8d
  402d90:	74 27                	je     402db9 <driver_post+0x30>
  402d92:	48 89 ca             	mov    %rcx,%rdx
  402d95:	be 92 36 40 00       	mov    $0x403692,%esi
  402d9a:	bf 01 00 00 00       	mov    $0x1,%edi
  402d9f:	b8 00 00 00 00       	mov    $0x0,%eax
  402da4:	e8 57 e0 ff ff       	callq  400e00 <__printf_chk@plt>
  402da9:	66 c7 03 4f 4b       	movw   $0x4b4f,(%rbx)
  402dae:	c6 43 02 00          	movb   $0x0,0x2(%rbx)
  402db2:	b8 00 00 00 00       	mov    $0x0,%eax
  402db7:	eb 3f                	jmp    402df8 <driver_post+0x6f>
  402db9:	48 85 ff             	test   %rdi,%rdi
  402dbc:	74 2c                	je     402dea <driver_post+0x61>
  402dbe:	80 3f 00             	cmpb   $0x0,(%rdi)
  402dc1:	74 27                	je     402dea <driver_post+0x61>
  402dc3:	48 83 ec 08          	sub    $0x8,%rsp
  402dc7:	41 51                	push   %r9
  402dc9:	49 89 c9             	mov    %rcx,%r9
  402dcc:	49 89 d0             	mov    %rdx,%r8
  402dcf:	48 89 f9             	mov    %rdi,%rcx
  402dd2:	48 89 f2             	mov    %rsi,%rdx
  402dd5:	be 9a 3c 00 00       	mov    $0x3c9a,%esi
  402dda:	bf 85 36 40 00       	mov    $0x403685,%edi
  402ddf:	e8 19 f6 ff ff       	callq  4023fd <submitr>
  402de4:	48 83 c4 10          	add    $0x10,%rsp
  402de8:	eb 0e                	jmp    402df8 <driver_post+0x6f>
  402dea:	66 c7 03 4f 4b       	movw   $0x4b4f,(%rbx)
  402def:	c6 43 02 00          	movb   $0x0,0x2(%rbx)
  402df3:	b8 00 00 00 00       	mov    $0x0,%eax
  402df8:	5b                   	pop    %rbx
  402df9:	c3                   	retq   

0000000000402dfa <check>:
  402dfa:	89 f8                	mov    %edi,%eax
  402dfc:	c1 e8 1c             	shr    $0x1c,%eax
  402dff:	85 c0                	test   %eax,%eax
  402e01:	74 1d                	je     402e20 <check+0x26>
  402e03:	b9 00 00 00 00       	mov    $0x0,%ecx
  402e08:	eb 0b                	jmp    402e15 <check+0x1b>
  402e0a:	89 f8                	mov    %edi,%eax
  402e0c:	d3 e8                	shr    %cl,%eax
  402e0e:	3c 0a                	cmp    $0xa,%al
  402e10:	74 14                	je     402e26 <check+0x2c>
  402e12:	83 c1 08             	add    $0x8,%ecx
  402e15:	83 f9 1f             	cmp    $0x1f,%ecx
  402e18:	7e f0                	jle    402e0a <check+0x10>
  402e1a:	b8 01 00 00 00       	mov    $0x1,%eax
  402e1f:	c3                   	retq   
  402e20:	b8 00 00 00 00       	mov    $0x0,%eax
  402e25:	c3                   	retq   
  402e26:	b8 00 00 00 00       	mov    $0x0,%eax
  402e2b:	c3                   	retq   

0000000000402e2c <gencookie>:
  402e2c:	53                   	push   %rbx
  402e2d:	83 c7 01             	add    $0x1,%edi
  402e30:	e8 6b de ff ff       	callq  400ca0 <srandom@plt>
  402e35:	e8 86 df ff ff       	callq  400dc0 <random@plt>
  402e3a:	89 c3                	mov    %eax,%ebx
  402e3c:	89 c7                	mov    %eax,%edi
  402e3e:	e8 b7 ff ff ff       	callq  402dfa <check>
  402e43:	85 c0                	test   %eax,%eax
  402e45:	74 ee                	je     402e35 <gencookie+0x9>
  402e47:	89 d8                	mov    %ebx,%eax
  402e49:	5b                   	pop    %rbx
  402e4a:	c3                   	retq   
  402e4b:	0f 1f 44 00 00       	nopl   0x0(%rax,%rax,1)

0000000000402e50 <__libc_csu_init>:
  402e50:	41 57                	push   %r15
  402e52:	41 56                	push   %r14
  402e54:	41 89 ff             	mov    %edi,%r15d
  402e57:	41 55                	push   %r13
  402e59:	41 54                	push   %r12
  402e5b:	4c 8d 25 ae 1f 20 00 	lea    0x201fae(%rip),%r12        # 604e10 <__frame_dummy_init_array_entry>
  402e62:	55                   	push   %rbp
  402e63:	48 8d 2d ae 1f 20 00 	lea    0x201fae(%rip),%rbp        # 604e18 <__init_array_end>
  402e6a:	53                   	push   %rbx
  402e6b:	49 89 f6             	mov    %rsi,%r14
  402e6e:	49 89 d5             	mov    %rdx,%r13
  402e71:	4c 29 e5             	sub    %r12,%rbp
  402e74:	48 83 ec 08          	sub    $0x8,%rsp
  402e78:	48 c1 fd 03          	sar    $0x3,%rbp
  402e7c:	e8 c7 dd ff ff       	callq  400c48 <_init>
  402e81:	48 85 ed             	test   %rbp,%rbp
  402e84:	74 20                	je     402ea6 <__libc_csu_init+0x56>
  402e86:	31 db                	xor    %ebx,%ebx
  402e88:	0f 1f 84 00 00 00 00 	nopl   0x0(%rax,%rax,1)
  402e8f:	00 
  402e90:	4c 89 ea             	mov    %r13,%rdx
  402e93:	4c 89 f6             	mov    %r14,%rsi
  402e96:	44 89 ff             	mov    %r15d,%edi
  402e99:	41 ff 14 dc          	callq  *(%r12,%rbx,8)
  402e9d:	48 83 c3 01          	add    $0x1,%rbx
  402ea1:	48 39 eb             	cmp    %rbp,%rbx
  402ea4:	75 ea                	jne    402e90 <__libc_csu_init+0x40>
  402ea6:	48 83 c4 08          	add    $0x8,%rsp
  402eaa:	5b                   	pop    %rbx
  402eab:	5d                   	pop    %rbp
  402eac:	41 5c                	pop    %r12
  402eae:	41 5d                	pop    %r13
  402eb0:	41 5e                	pop    %r14
  402eb2:	41 5f                	pop    %r15
  402eb4:	c3                   	retq   
  402eb5:	90                   	nop
  402eb6:	66 2e 0f 1f 84 00 00 	nopw   %cs:0x0(%rax,%rax,1)
  402ebd:	00 00 00 

0000000000402ec0 <__libc_csu_fini>:
  402ec0:	f3 c3                	repz retq 

Desensamblado de la secci贸n .fini:

0000000000402ec4 <_fini>:
  402ec4:	48 83 ec 08          	sub    $0x8,%rsp
  402ec8:	48 83 c4 08          	add    $0x8,%rsp
  402ecc:	c3                   	retq
